
code.elf:     file format elf32-avr


Disassembly of section .text:

00000000 <__vectors>:
       0:	0c 94 24 01 	jmp	0x248	; 0x248 <__ctors_end>
       4:	0c 94 41 01 	jmp	0x282	; 0x282 <__bad_interrupt>
       8:	0c 94 41 01 	jmp	0x282	; 0x282 <__bad_interrupt>
       c:	0c 94 41 01 	jmp	0x282	; 0x282 <__bad_interrupt>
      10:	0c 94 41 01 	jmp	0x282	; 0x282 <__bad_interrupt>
      14:	0c 94 41 01 	jmp	0x282	; 0x282 <__bad_interrupt>
      18:	0c 94 41 01 	jmp	0x282	; 0x282 <__bad_interrupt>
      1c:	0c 94 41 01 	jmp	0x282	; 0x282 <__bad_interrupt>
      20:	0c 94 41 01 	jmp	0x282	; 0x282 <__bad_interrupt>
      24:	0c 94 41 01 	jmp	0x282	; 0x282 <__bad_interrupt>
      28:	0c 94 41 01 	jmp	0x282	; 0x282 <__bad_interrupt>
      2c:	0c 94 43 01 	jmp	0x286	; 0x286 <__vector_11>
      30:	0c 94 41 01 	jmp	0x282	; 0x282 <__bad_interrupt>
      34:	0c 94 41 01 	jmp	0x282	; 0x282 <__bad_interrupt>
      38:	0c 94 41 01 	jmp	0x282	; 0x282 <__bad_interrupt>
      3c:	0c 94 41 01 	jmp	0x282	; 0x282 <__bad_interrupt>
      40:	0c 94 41 01 	jmp	0x282	; 0x282 <__bad_interrupt>
      44:	0c 94 41 01 	jmp	0x282	; 0x282 <__bad_interrupt>
      48:	0c 94 41 01 	jmp	0x282	; 0x282 <__bad_interrupt>
      4c:	0c 94 41 01 	jmp	0x282	; 0x282 <__bad_interrupt>
      50:	0c 94 41 01 	jmp	0x282	; 0x282 <__bad_interrupt>
      54:	0c 94 41 01 	jmp	0x282	; 0x282 <__bad_interrupt>
      58:	0c 94 41 01 	jmp	0x282	; 0x282 <__bad_interrupt>
      5c:	0c 94 41 01 	jmp	0x282	; 0x282 <__bad_interrupt>
      60:	0c 94 41 01 	jmp	0x282	; 0x282 <__bad_interrupt>
      64:	0c 94 41 01 	jmp	0x282	; 0x282 <__bad_interrupt>

00000068 <CHARSET>:
      68:	00 00 00 00 00 00 00 5f 00 00 00 07 00 07 00 14     ......._........
      78:	7f 14 7f 14 24 2a 7f 2a 12 23 13 08 64 62 36 49     ....$*.*.#..db6I
      88:	55 22 50 00 05 03 00 00 00 1c 22 41 00 00 41 22     U"P......."A..A"
      98:	1c 00 14 08 3e 08 14 08 08 3e 08 08 00 50 30 00     ....>....>...P0.
      a8:	00 08 08 08 08 08 00 60 60 00 00 20 10 08 04 02     .......``.. ....
      b8:	3e 51 49 45 3e 00 42 7f 40 00 42 61 51 49 46 21     >QIE>.B.@.BaQIF!
      c8:	41 45 4b 31 18 14 12 7f 10 27 45 45 45 39 3c 4a     AEK1.....'EEE9<J
      d8:	49 49 30 01 71 09 05 03 36 49 49 49 36 06 49 49     II0.q...6III6.II
      e8:	29 1e 00 36 36 00 00 00 56 36 00 00 08 14 22 41     )..66...V6...."A
      f8:	00 14 14 14 14 14 00 41 22 14 08 02 01 51 09 06     .......A"....Q..
     108:	32 49 79 41 3e 7e 11 11 11 7e 7f 49 49 49 36 3e     2IyA>~...~.III6>
     118:	41 41 41 22 7f 41 41 22 1c 7f 49 49 49 41 7f 09     AAA".AA"..IIIA..
     128:	09 09 01 3e 41 49 49 7a 7f 08 08 08 7f 00 41 7f     ...>AIIz......A.
     138:	41 00 20 40 41 3f 01 7f 08 14 22 41 7f 40 40 40     A. @A?...."A.@@@
     148:	40 7f 02 0c 02 7f 7f 04 08 10 7f 3e 41 41 41 3e     @..........>AAA>
     158:	7f 09 09 09 06 3e 41 51 21 5e 7f 09 19 29 46 46     .....>AQ!^...)FF
     168:	49 49 49 31 01 01 7f 01 01 3f 40 40 40 3f 1f 20     III1.....?@@@?. 
     178:	40 20 1f 3f 40 38 40 3f 63 14 08 14 63 07 08 70     @ .?@8@?c...c..p
     188:	08 07 61 51 49 45 43 00 7f 41 41 00 02 04 08 10     ..aQIEC..AA.....
     198:	20 00 41 41 7f 00 04 02 01 02 04 40 40 40 40 40      .AA.......@@@@@
     1a8:	00 01 02 04 00 20 54 54 54 78 7f 48 44 44 38 38     ..... TTTx.HDD88
     1b8:	44 44 44 20 38 44 44 48 7f 38 54 54 54 18 08 7e     DDD 8DDH.8TTT..~
     1c8:	09 01 02 0c 52 52 52 3e 7f 08 04 04 78 00 44 7d     ....RRR>....x.D}
     1d8:	40 00 20 40 44 3d 00 7f 10 28 44 00 00 41 7f 40     @. @D=...(D..A.@
     1e8:	00 7c 04 18 04 78 7c 08 04 04 78 38 44 44 44 38     .|...x|...x8DDD8
     1f8:	7c 14 14 14 08 08 14 14 18 7c 7c 08 04 04 08 48     |........||....H
     208:	54 54 54 20 04 3f 44 40 20 3c 40 40 20 7c 1c 20     TTT .?D@ <@@ |. 
     218:	40 20 1c 3c 40 30 40 3c 44 28 10 28 44 0c 50 50     @ .<@0@<D(.(D.PP
     228:	50 3c 44 64 54 4c 44 00 08 36 41 00 00 00 7f 00     P<DdTLD..6A.....
     238:	00 00 41 36 08 00 10 08 08 10 08 00 00 00 00 00     ..A6............

00000248 <__ctors_end>:
     248:	11 24       	eor	r1, r1
     24a:	1f be       	out	0x3f, r1	; 63
     24c:	cf ef       	ldi	r28, 0xFF	; 255
     24e:	d8 e0       	ldi	r29, 0x08	; 8
     250:	de bf       	out	0x3e, r29	; 62
     252:	cd bf       	out	0x3d, r28	; 61

00000254 <__do_copy_data>:
     254:	11 e0       	ldi	r17, 0x01	; 1
     256:	a0 e0       	ldi	r26, 0x00	; 0
     258:	b1 e0       	ldi	r27, 0x01	; 1
     25a:	e6 e4       	ldi	r30, 0x46	; 70
     25c:	f7 e1       	ldi	r31, 0x17	; 23
     25e:	02 c0       	rjmp	.+4      	; 0x264 <__do_copy_data+0x10>
     260:	05 90       	lpm	r0, Z+
     262:	0d 92       	st	X+, r0
     264:	a2 34       	cpi	r26, 0x42	; 66
     266:	b1 07       	cpc	r27, r17
     268:	d9 f7       	brne	.-10     	; 0x260 <__do_copy_data+0xc>

0000026a <__do_clear_bss>:
     26a:	23 e0       	ldi	r18, 0x03	; 3
     26c:	a2 e4       	ldi	r26, 0x42	; 66
     26e:	b1 e0       	ldi	r27, 0x01	; 1
     270:	01 c0       	rjmp	.+2      	; 0x274 <.do_clear_bss_start>

00000272 <.do_clear_bss_loop>:
     272:	1d 92       	st	X+, r1

00000274 <.do_clear_bss_start>:
     274:	a0 38       	cpi	r26, 0x80	; 128
     276:	b2 07       	cpc	r27, r18
     278:	e1 f7       	brne	.-8      	; 0x272 <.do_clear_bss_loop>
     27a:	0e 94 54 05 	call	0xaa8	; 0xaa8 <main>
     27e:	0c 94 a1 0b 	jmp	0x1742	; 0x1742 <_exit>

00000282 <__bad_interrupt>:
     282:	0c 94 00 00 	jmp	0	; 0x0 <__vectors>

00000286 <__vector_11>:
     286:	1f 92       	push	r1
     288:	0f 92       	push	r0
     28a:	0f b6       	in	r0, 0x3f	; 63
     28c:	0f 92       	push	r0
     28e:	11 24       	eor	r1, r1
     290:	ef 92       	push	r14
     292:	ff 92       	push	r15
     294:	0f 93       	push	r16
     296:	1f 93       	push	r17
     298:	2f 93       	push	r18
     29a:	3f 93       	push	r19
     29c:	4f 93       	push	r20
     29e:	5f 93       	push	r21
     2a0:	6f 93       	push	r22
     2a2:	7f 93       	push	r23
     2a4:	8f 93       	push	r24
     2a6:	9f 93       	push	r25
     2a8:	af 93       	push	r26
     2aa:	bf 93       	push	r27
     2ac:	ef 93       	push	r30
     2ae:	ff 93       	push	r31
     2b0:	cf 93       	push	r28
     2b2:	df 93       	push	r29
     2b4:	cd b7       	in	r28, 0x3d	; 61
     2b6:	de b7       	in	r29, 0x3e	; 62
     2b8:	61 97       	sbiw	r28, 0x11	; 17
     2ba:	de bf       	out	0x3e, r29	; 62
     2bc:	cd bf       	out	0x3d, r28	; 61
     2be:	80 91 44 01 	lds	r24, 0x0144	; 0x800144 <global_interruption_count>
     2c2:	90 91 45 01 	lds	r25, 0x0145	; 0x800145 <global_interruption_count+0x1>
     2c6:	01 96       	adiw	r24, 0x01	; 1
     2c8:	90 93 45 01 	sts	0x0145, r25	; 0x800145 <global_interruption_count+0x1>
     2cc:	80 93 44 01 	sts	0x0144, r24	; 0x800144 <global_interruption_count>
     2d0:	20 91 00 01 	lds	r18, 0x0100	; 0x800100 <editable_interr_count>
     2d4:	30 91 01 01 	lds	r19, 0x0101	; 0x800101 <editable_interr_count+0x1>
     2d8:	2f 5f       	subi	r18, 0xFF	; 255
     2da:	3f 4f       	sbci	r19, 0xFF	; 255
     2dc:	30 93 01 01 	sts	0x0101, r19	; 0x800101 <editable_interr_count+0x1>
     2e0:	20 93 00 01 	sts	0x0100, r18	; 0x800100 <editable_interr_count>
     2e4:	c3 97       	sbiw	r24, 0x33	; 51
     2e6:	09 f0       	breq	.+2      	; 0x2ea <__vector_11+0x64>
     2e8:	41 c0       	rjmp	.+130    	; 0x36c <__vector_11+0xe6>
     2ea:	84 e2       	ldi	r24, 0x24	; 36
     2ec:	e8 2e       	mov	r14, r24
     2ee:	81 e0       	ldi	r24, 0x01	; 1
     2f0:	f8 2e       	mov	r15, r24
     2f2:	8e 01       	movw	r16, r28
     2f4:	0f 5f       	subi	r16, 0xFF	; 255
     2f6:	1f 4f       	sbci	r17, 0xFF	; 255
     2f8:	0e 94 fb 02 	call	0x5f6	; 0x5f6 <nokia_lcd_clear>
     2fc:	60 e0       	ldi	r22, 0x00	; 0
     2fe:	84 e1       	ldi	r24, 0x14	; 20
     300:	0e 94 e5 03 	call	0x7ca	; 0x7ca <nokia_lcd_set_cursor>
     304:	62 e0       	ldi	r22, 0x02	; 2
     306:	86 e0       	ldi	r24, 0x06	; 6
     308:	91 e0       	ldi	r25, 0x01	; 1
     30a:	0e 94 d5 03 	call	0x7aa	; 0x7aa <nokia_lcd_write_string>
     30e:	64 e1       	ldi	r22, 0x14	; 20
     310:	84 e1       	ldi	r24, 0x14	; 20
     312:	0e 94 e5 03 	call	0x7ca	; 0x7ca <nokia_lcd_set_cursor>
     316:	62 e0       	ldi	r22, 0x02	; 2
     318:	8b e0       	ldi	r24, 0x0B	; 11
     31a:	91 e0       	ldi	r25, 0x01	; 1
     31c:	0e 94 d5 03 	call	0x7aa	; 0x7aa <nokia_lcd_write_string>
     320:	68 e2       	ldi	r22, 0x28	; 40
     322:	80 e0       	ldi	r24, 0x00	; 0
     324:	0e 94 e5 03 	call	0x7ca	; 0x7ca <nokia_lcd_set_cursor>
     328:	61 e0       	ldi	r22, 0x01	; 1
     32a:	80 e1       	ldi	r24, 0x10	; 16
     32c:	91 e0       	ldi	r25, 0x01	; 1
     32e:	0e 94 d5 03 	call	0x7aa	; 0x7aa <nokia_lcd_write_string>
     332:	80 91 43 01 	lds	r24, 0x0143	; 0x800143 <points_counter+0x1>
     336:	8f 93       	push	r24
     338:	80 91 42 01 	lds	r24, 0x0142	; 0x800142 <points_counter>
     33c:	8f 93       	push	r24
     33e:	ff 92       	push	r15
     340:	ef 92       	push	r14
     342:	1f 93       	push	r17
     344:	0f 93       	push	r16
     346:	0e 94 6d 08 	call	0x10da	; 0x10da <sprintf>
     34a:	68 e2       	ldi	r22, 0x28	; 40
     34c:	8d e2       	ldi	r24, 0x2D	; 45
     34e:	0e 94 e5 03 	call	0x7ca	; 0x7ca <nokia_lcd_set_cursor>
     352:	61 e0       	ldi	r22, 0x01	; 1
     354:	c8 01       	movw	r24, r16
     356:	0e 94 d5 03 	call	0x7aa	; 0x7aa <nokia_lcd_write_string>
     35a:	0e 94 3f 05 	call	0xa7e	; 0xa7e <nokia_lcd_render>
     35e:	0f 90       	pop	r0
     360:	0f 90       	pop	r0
     362:	0f 90       	pop	r0
     364:	0f 90       	pop	r0
     366:	0f 90       	pop	r0
     368:	0f 90       	pop	r0
     36a:	c6 cf       	rjmp	.-116    	; 0x2f8 <__vector_11+0x72>
     36c:	61 96       	adiw	r28, 0x11	; 17
     36e:	0f b6       	in	r0, 0x3f	; 63
     370:	f8 94       	cli
     372:	de bf       	out	0x3e, r29	; 62
     374:	0f be       	out	0x3f, r0	; 63
     376:	cd bf       	out	0x3d, r28	; 61
     378:	df 91       	pop	r29
     37a:	cf 91       	pop	r28
     37c:	ff 91       	pop	r31
     37e:	ef 91       	pop	r30
     380:	bf 91       	pop	r27
     382:	af 91       	pop	r26
     384:	9f 91       	pop	r25
     386:	8f 91       	pop	r24
     388:	7f 91       	pop	r23
     38a:	6f 91       	pop	r22
     38c:	5f 91       	pop	r21
     38e:	4f 91       	pop	r20
     390:	3f 91       	pop	r19
     392:	2f 91       	pop	r18
     394:	1f 91       	pop	r17
     396:	0f 91       	pop	r16
     398:	ff 90       	pop	r15
     39a:	ef 90       	pop	r14
     39c:	0f 90       	pop	r0
     39e:	0f be       	out	0x3f, r0	; 63
     3a0:	0f 90       	pop	r0
     3a2:	1f 90       	pop	r1
     3a4:	18 95       	reti

000003a6 <render_timer_points>:
     3a6:	0f 93       	push	r16
     3a8:	1f 93       	push	r17
     3aa:	cf 93       	push	r28
     3ac:	df 93       	push	r29
     3ae:	cd b7       	in	r28, 0x3d	; 61
     3b0:	de b7       	in	r29, 0x3e	; 62
     3b2:	2a 97       	sbiw	r28, 0x0a	; 10
     3b4:	0f b6       	in	r0, 0x3f	; 63
     3b6:	f8 94       	cli
     3b8:	de bf       	out	0x3e, r29	; 62
     3ba:	0f be       	out	0x3f, r0	; 63
     3bc:	cd bf       	out	0x3d, r28	; 61
     3be:	0e 94 fb 02 	call	0x5f6	; 0x5f6 <nokia_lcd_clear>
     3c2:	68 e2       	ldi	r22, 0x28	; 40
     3c4:	80 e0       	ldi	r24, 0x00	; 0
     3c6:	0e 94 e5 03 	call	0x7ca	; 0x7ca <nokia_lcd_set_cursor>
     3ca:	61 e0       	ldi	r22, 0x01	; 1
     3cc:	89 e1       	ldi	r24, 0x19	; 25
     3ce:	91 e0       	ldi	r25, 0x01	; 1
     3d0:	0e 94 d5 03 	call	0x7aa	; 0x7aa <nokia_lcd_write_string>
     3d4:	80 91 43 01 	lds	r24, 0x0143	; 0x800143 <points_counter+0x1>
     3d8:	8f 93       	push	r24
     3da:	80 91 42 01 	lds	r24, 0x0142	; 0x800142 <points_counter>
     3de:	8f 93       	push	r24
     3e0:	20 91 44 01 	lds	r18, 0x0144	; 0x800144 <global_interruption_count>
     3e4:	30 91 45 01 	lds	r19, 0x0145	; 0x800145 <global_interruption_count+0x1>
     3e8:	83 e3       	ldi	r24, 0x33	; 51
     3ea:	90 e0       	ldi	r25, 0x00	; 0
     3ec:	82 1b       	sub	r24, r18
     3ee:	93 0b       	sbc	r25, r19
     3f0:	9f 93       	push	r25
     3f2:	8f 93       	push	r24
     3f4:	81 e2       	ldi	r24, 0x21	; 33
     3f6:	91 e0       	ldi	r25, 0x01	; 1
     3f8:	9f 93       	push	r25
     3fa:	8f 93       	push	r24
     3fc:	8e 01       	movw	r16, r28
     3fe:	0f 5f       	subi	r16, 0xFF	; 255
     400:	1f 4f       	sbci	r17, 0xFF	; 255
     402:	1f 93       	push	r17
     404:	0f 93       	push	r16
     406:	0e 94 6d 08 	call	0x10da	; 0x10da <sprintf>
     40a:	68 e2       	ldi	r22, 0x28	; 40
     40c:	87 e2       	ldi	r24, 0x27	; 39
     40e:	0e 94 e5 03 	call	0x7ca	; 0x7ca <nokia_lcd_set_cursor>
     412:	61 e0       	ldi	r22, 0x01	; 1
     414:	c8 01       	movw	r24, r16
     416:	0e 94 d5 03 	call	0x7aa	; 0x7aa <nokia_lcd_write_string>
     41a:	0f b6       	in	r0, 0x3f	; 63
     41c:	f8 94       	cli
     41e:	de bf       	out	0x3e, r29	; 62
     420:	0f be       	out	0x3f, r0	; 63
     422:	cd bf       	out	0x3d, r28	; 61
     424:	2a 96       	adiw	r28, 0x0a	; 10
     426:	0f b6       	in	r0, 0x3f	; 63
     428:	f8 94       	cli
     42a:	de bf       	out	0x3e, r29	; 62
     42c:	0f be       	out	0x3f, r0	; 63
     42e:	cd bf       	out	0x3d, r28	; 61
     430:	df 91       	pop	r29
     432:	cf 91       	pop	r28
     434:	1f 91       	pop	r17
     436:	0f 91       	pop	r16
     438:	08 95       	ret

0000043a <render_table>:
     43a:	ff 92       	push	r15
     43c:	0f 93       	push	r16
     43e:	1f 93       	push	r17
     440:	cf 93       	push	r28
     442:	df 93       	push	r29
     444:	00 d0       	rcall	.+0      	; 0x446 <render_table+0xc>
     446:	cd b7       	in	r28, 0x3d	; 61
     448:	de b7       	in	r29, 0x3e	; 62
     44a:	f8 2e       	mov	r15, r24
     44c:	8d b7       	in	r24, 0x3d	; 61
     44e:	9e b7       	in	r25, 0x3e	; 62
     450:	9a 83       	std	Y+2, r25	; 0x02
     452:	89 83       	std	Y+1, r24	; 0x01
     454:	46 2f       	mov	r20, r22
     456:	50 e0       	ldi	r21, 0x00	; 0
     458:	ed b7       	in	r30, 0x3d	; 61
     45a:	fe b7       	in	r31, 0x3e	; 62
     45c:	e4 1b       	sub	r30, r20
     45e:	f5 0b       	sbc	r31, r21
     460:	0f b6       	in	r0, 0x3f	; 63
     462:	f8 94       	cli
     464:	fe bf       	out	0x3e, r31	; 62
     466:	0f be       	out	0x3f, r0	; 63
     468:	ed bf       	out	0x3d, r30	; 61
     46a:	0d b7       	in	r16, 0x3d	; 61
     46c:	1e b7       	in	r17, 0x3e	; 62
     46e:	0f 5f       	subi	r16, 0xFF	; 255
     470:	1f 4f       	sbci	r17, 0xFF	; 255
     472:	6f e4       	ldi	r22, 0x4F	; 79
     474:	70 e0       	ldi	r23, 0x00	; 0
     476:	c8 01       	movw	r24, r16
     478:	0e 94 66 08 	call	0x10cc	; 0x10cc <memset>
     47c:	f8 01       	movw	r30, r16
     47e:	ef 0d       	add	r30, r15
     480:	f1 1d       	adc	r31, r1
     482:	81 e4       	ldi	r24, 0x41	; 65
     484:	80 83       	st	Z, r24
     486:	65 e0       	ldi	r22, 0x05	; 5
     488:	8a e0       	ldi	r24, 0x0A	; 10
     48a:	0e 94 e5 03 	call	0x7ca	; 0x7ca <nokia_lcd_set_cursor>
     48e:	61 e0       	ldi	r22, 0x01	; 1
     490:	f8 01       	movw	r30, r16
     492:	80 81       	ld	r24, Z
     494:	0e 94 34 03 	call	0x668	; 0x668 <nokia_lcd_write_char>
     498:	65 e0       	ldi	r22, 0x05	; 5
     49a:	81 e4       	ldi	r24, 0x41	; 65
     49c:	0e 94 e5 03 	call	0x7ca	; 0x7ca <nokia_lcd_set_cursor>
     4a0:	61 e0       	ldi	r22, 0x01	; 1
     4a2:	f8 01       	movw	r30, r16
     4a4:	81 81       	ldd	r24, Z+1	; 0x01
     4a6:	0e 94 34 03 	call	0x668	; 0x668 <nokia_lcd_write_char>
     4aa:	6f e0       	ldi	r22, 0x0F	; 15
     4ac:	85 e2       	ldi	r24, 0x25	; 37
     4ae:	0e 94 e5 03 	call	0x7ca	; 0x7ca <nokia_lcd_set_cursor>
     4b2:	61 e0       	ldi	r22, 0x01	; 1
     4b4:	f8 01       	movw	r30, r16
     4b6:	82 81       	ldd	r24, Z+2	; 0x02
     4b8:	0e 94 34 03 	call	0x668	; 0x668 <nokia_lcd_write_char>
     4bc:	69 e1       	ldi	r22, 0x19	; 25
     4be:	8a e0       	ldi	r24, 0x0A	; 10
     4c0:	0e 94 e5 03 	call	0x7ca	; 0x7ca <nokia_lcd_set_cursor>
     4c4:	61 e0       	ldi	r22, 0x01	; 1
     4c6:	f8 01       	movw	r30, r16
     4c8:	83 81       	ldd	r24, Z+3	; 0x03
     4ca:	0e 94 34 03 	call	0x668	; 0x668 <nokia_lcd_write_char>
     4ce:	69 e1       	ldi	r22, 0x19	; 25
     4d0:	81 e4       	ldi	r24, 0x41	; 65
     4d2:	0e 94 e5 03 	call	0x7ca	; 0x7ca <nokia_lcd_set_cursor>
     4d6:	61 e0       	ldi	r22, 0x01	; 1
     4d8:	f8 01       	movw	r30, r16
     4da:	84 81       	ldd	r24, Z+4	; 0x04
     4dc:	0e 94 34 03 	call	0x668	; 0x668 <nokia_lcd_write_char>
     4e0:	0e 94 3f 05 	call	0xa7e	; 0xa7e <nokia_lcd_render>
     4e4:	89 81       	ldd	r24, Y+1	; 0x01
     4e6:	9a 81       	ldd	r25, Y+2	; 0x02
     4e8:	0f b6       	in	r0, 0x3f	; 63
     4ea:	f8 94       	cli
     4ec:	9e bf       	out	0x3e, r25	; 62
     4ee:	0f be       	out	0x3f, r0	; 63
     4f0:	8d bf       	out	0x3d, r24	; 61
     4f2:	0f 90       	pop	r0
     4f4:	0f 90       	pop	r0
     4f6:	df 91       	pop	r29
     4f8:	cf 91       	pop	r28
     4fa:	1f 91       	pop	r17
     4fc:	0f 91       	pop	r16
     4fe:	ff 90       	pop	r15
     500:	08 95       	ret

00000502 <timer1_init>:
     502:	10 92 85 00 	sts	0x0085, r1	; 0x800085 <__TEXT_REGION_LENGTH__+0x7e0085>
     506:	10 92 84 00 	sts	0x0084, r1	; 0x800084 <__TEXT_REGION_LENGTH__+0x7e0084>
     50a:	e1 e8       	ldi	r30, 0x81	; 129
     50c:	f0 e0       	ldi	r31, 0x00	; 0
     50e:	80 81       	ld	r24, Z
     510:	88 60       	ori	r24, 0x08	; 8
     512:	80 83       	st	Z, r24
     514:	80 81       	ld	r24, Z
     516:	85 60       	ori	r24, 0x05	; 5
     518:	80 83       	st	Z, r24
     51a:	89 e0       	ldi	r24, 0x09	; 9
     51c:	9d e3       	ldi	r25, 0x3D	; 61
     51e:	90 93 89 00 	sts	0x0089, r25	; 0x800089 <__TEXT_REGION_LENGTH__+0x7e0089>
     522:	80 93 88 00 	sts	0x0088, r24	; 0x800088 <__TEXT_REGION_LENGTH__+0x7e0088>
     526:	ef e6       	ldi	r30, 0x6F	; 111
     528:	f0 e0       	ldi	r31, 0x00	; 0
     52a:	80 81       	ld	r24, Z
     52c:	82 60       	ori	r24, 0x02	; 2
     52e:	80 83       	st	Z, r24
     530:	08 95       	ret

00000532 <write>:
     532:	29 98       	cbi	0x05, 1	; 5
     534:	66 23       	and	r22, r22
     536:	a9 f0       	breq	.+42     	; 0x562 <write+0x30>
     538:	2b 9a       	sbi	0x05, 3	; 5
     53a:	27 e0       	ldi	r18, 0x07	; 7
     53c:	30 e0       	ldi	r19, 0x00	; 0
     53e:	90 e0       	ldi	r25, 0x00	; 0
     540:	ac 01       	movw	r20, r24
     542:	02 2e       	mov	r0, r18
     544:	02 c0       	rjmp	.+4      	; 0x54a <write+0x18>
     546:	55 95       	asr	r21
     548:	47 95       	ror	r20
     54a:	0a 94       	dec	r0
     54c:	e2 f7       	brpl	.-8      	; 0x546 <write+0x14>
     54e:	40 ff       	sbrs	r20, 0
     550:	0a c0       	rjmp	.+20     	; 0x566 <write+0x34>
     552:	2c 9a       	sbi	0x05, 4	; 5
     554:	2d 9a       	sbi	0x05, 5	; 5
     556:	2d 98       	cbi	0x05, 5	; 5
     558:	21 50       	subi	r18, 0x01	; 1
     55a:	31 09       	sbc	r19, r1
     55c:	88 f7       	brcc	.-30     	; 0x540 <write+0xe>
     55e:	29 9a       	sbi	0x05, 1	; 5
     560:	08 95       	ret
     562:	2b 98       	cbi	0x05, 3	; 5
     564:	ea cf       	rjmp	.-44     	; 0x53a <write+0x8>
     566:	2c 98       	cbi	0x05, 4	; 5
     568:	f5 cf       	rjmp	.-22     	; 0x554 <write+0x22>

0000056a <write_cmd>:
     56a:	60 e0       	ldi	r22, 0x00	; 0
     56c:	0c 94 99 02 	jmp	0x532	; 0x532 <write>

00000570 <nokia_lcd_init>:
     570:	cf 93       	push	r28
     572:	df 93       	push	r29
     574:	21 9a       	sbi	0x04, 1	; 4
     576:	22 9a       	sbi	0x04, 2	; 4
     578:	23 9a       	sbi	0x04, 3	; 4
     57a:	24 9a       	sbi	0x04, 4	; 4
     57c:	25 9a       	sbi	0x04, 5	; 4
     57e:	2a 9a       	sbi	0x05, 2	; 5
     580:	29 9a       	sbi	0x05, 1	; 5
     582:	8f e3       	ldi	r24, 0x3F	; 63
     584:	9c e9       	ldi	r25, 0x9C	; 156
     586:	01 97       	sbiw	r24, 0x01	; 1
     588:	f1 f7       	brne	.-4      	; 0x586 <nokia_lcd_init+0x16>
     58a:	00 c0       	rjmp	.+0      	; 0x58c <nokia_lcd_init+0x1c>
     58c:	00 00       	nop
     58e:	2a 98       	cbi	0x05, 2	; 5
     590:	9f ef       	ldi	r25, 0xFF	; 255
     592:	2a e6       	ldi	r18, 0x6A	; 106
     594:	83 e0       	ldi	r24, 0x03	; 3
     596:	91 50       	subi	r25, 0x01	; 1
     598:	20 40       	sbci	r18, 0x00	; 0
     59a:	80 40       	sbci	r24, 0x00	; 0
     59c:	e1 f7       	brne	.-8      	; 0x596 <nokia_lcd_init+0x26>
     59e:	00 c0       	rjmp	.+0      	; 0x5a0 <nokia_lcd_init+0x30>
     5a0:	00 00       	nop
     5a2:	2a 9a       	sbi	0x05, 2	; 5
     5a4:	29 98       	cbi	0x05, 1	; 5
     5a6:	81 e2       	ldi	r24, 0x21	; 33
     5a8:	0e 94 b5 02 	call	0x56a	; 0x56a <write_cmd>
     5ac:	83 e1       	ldi	r24, 0x13	; 19
     5ae:	0e 94 b5 02 	call	0x56a	; 0x56a <write_cmd>
     5b2:	86 e0       	ldi	r24, 0x06	; 6
     5b4:	0e 94 b5 02 	call	0x56a	; 0x56a <write_cmd>
     5b8:	82 ec       	ldi	r24, 0xC2	; 194
     5ba:	0e 94 b5 02 	call	0x56a	; 0x56a <write_cmd>
     5be:	80 e2       	ldi	r24, 0x20	; 32
     5c0:	0e 94 b5 02 	call	0x56a	; 0x56a <write_cmd>
     5c4:	89 e0       	ldi	r24, 0x09	; 9
     5c6:	0e 94 b5 02 	call	0x56a	; 0x56a <write_cmd>
     5ca:	80 e8       	ldi	r24, 0x80	; 128
     5cc:	0e 94 b5 02 	call	0x56a	; 0x56a <write_cmd>
     5d0:	80 e4       	ldi	r24, 0x40	; 64
     5d2:	0e 94 b5 02 	call	0x56a	; 0x56a <write_cmd>
     5d6:	c8 ef       	ldi	r28, 0xF8	; 248
     5d8:	d1 e0       	ldi	r29, 0x01	; 1
     5da:	61 e0       	ldi	r22, 0x01	; 1
     5dc:	80 e0       	ldi	r24, 0x00	; 0
     5de:	0e 94 99 02 	call	0x532	; 0x532 <write>
     5e2:	21 97       	sbiw	r28, 0x01	; 1
     5e4:	d1 f7       	brne	.-12     	; 0x5da <nokia_lcd_init+0x6a>
     5e6:	88 e0       	ldi	r24, 0x08	; 8
     5e8:	0e 94 b5 02 	call	0x56a	; 0x56a <write_cmd>
     5ec:	8c e0       	ldi	r24, 0x0C	; 12
     5ee:	df 91       	pop	r29
     5f0:	cf 91       	pop	r28
     5f2:	0c 94 b5 02 	jmp	0x56a	; 0x56a <write_cmd>

000005f6 <nokia_lcd_clear>:
     5f6:	80 e8       	ldi	r24, 0x80	; 128
     5f8:	0e 94 b5 02 	call	0x56a	; 0x56a <write_cmd>
     5fc:	80 e4       	ldi	r24, 0x40	; 64
     5fe:	0e 94 b5 02 	call	0x56a	; 0x56a <write_cmd>
     602:	10 92 7e 03 	sts	0x037E, r1	; 0x80037e <nokia_lcd+0x1f8>
     606:	10 92 7f 03 	sts	0x037F, r1	; 0x80037f <nokia_lcd+0x1f9>
     60a:	e6 e8       	ldi	r30, 0x86	; 134
     60c:	f1 e0       	ldi	r31, 0x01	; 1
     60e:	88 ef       	ldi	r24, 0xF8	; 248
     610:	91 e0       	ldi	r25, 0x01	; 1
     612:	df 01       	movw	r26, r30
     614:	9c 01       	movw	r18, r24
     616:	1d 92       	st	X+, r1
     618:	21 50       	subi	r18, 0x01	; 1
     61a:	30 40       	sbci	r19, 0x00	; 0
     61c:	e1 f7       	brne	.-8      	; 0x616 <nokia_lcd_clear+0x20>
     61e:	08 95       	ret

00000620 <nokia_lcd_power>:
     620:	81 11       	cpse	r24, r1
     622:	03 c0       	rjmp	.+6      	; 0x62a <nokia_lcd_power+0xa>
     624:	84 e2       	ldi	r24, 0x24	; 36
     626:	0c 94 b5 02 	jmp	0x56a	; 0x56a <write_cmd>
     62a:	80 e2       	ldi	r24, 0x20	; 32
     62c:	fc cf       	rjmp	.-8      	; 0x626 <nokia_lcd_power+0x6>

0000062e <nokia_lcd_set_pixel>:
     62e:	96 2f       	mov	r25, r22
     630:	96 95       	lsr	r25
     632:	96 95       	lsr	r25
     634:	96 95       	lsr	r25
     636:	e8 2f       	mov	r30, r24
     638:	f0 e0       	ldi	r31, 0x00	; 0
     63a:	84 e5       	ldi	r24, 0x54	; 84
     63c:	98 9f       	mul	r25, r24
     63e:	e0 0d       	add	r30, r0
     640:	f1 1d       	adc	r31, r1
     642:	11 24       	eor	r1, r1
     644:	ea 57       	subi	r30, 0x7A	; 122
     646:	fe 4f       	sbci	r31, 0xFE	; 254
     648:	20 81       	ld	r18, Z
     64a:	67 70       	andi	r22, 0x07	; 7
     64c:	81 e0       	ldi	r24, 0x01	; 1
     64e:	90 e0       	ldi	r25, 0x00	; 0
     650:	01 c0       	rjmp	.+2      	; 0x654 <nokia_lcd_set_pixel+0x26>
     652:	88 0f       	add	r24, r24
     654:	6a 95       	dec	r22
     656:	ea f7       	brpl	.-6      	; 0x652 <nokia_lcd_set_pixel+0x24>
     658:	44 23       	and	r20, r20
     65a:	19 f0       	breq	.+6      	; 0x662 <nokia_lcd_set_pixel+0x34>
     65c:	28 2b       	or	r18, r24
     65e:	20 83       	st	Z, r18
     660:	08 95       	ret
     662:	80 95       	com	r24
     664:	28 23       	and	r18, r24
     666:	fb cf       	rjmp	.-10     	; 0x65e <nokia_lcd_set_pixel+0x30>

00000668 <nokia_lcd_write_char>:
     668:	8f 92       	push	r8
     66a:	9f 92       	push	r9
     66c:	af 92       	push	r10
     66e:	bf 92       	push	r11
     670:	df 92       	push	r13
     672:	ef 92       	push	r14
     674:	ff 92       	push	r15
     676:	0f 93       	push	r16
     678:	1f 93       	push	r17
     67a:	cf 93       	push	r28
     67c:	df 93       	push	r29
     67e:	00 d0       	rcall	.+0      	; 0x680 <nokia_lcd_write_char+0x18>
     680:	00 d0       	rcall	.+0      	; 0x682 <nokia_lcd_write_char+0x1a>
     682:	0f 92       	push	r0
     684:	cd b7       	in	r28, 0x3d	; 61
     686:	de b7       	in	r29, 0x3e	; 62
     688:	e8 2f       	mov	r30, r24
     68a:	f6 2e       	mov	r15, r22
     68c:	80 32       	cpi	r24, 0x20	; 32
     68e:	0c f4       	brge	.+2      	; 0x692 <nokia_lcd_write_char+0x2a>
     690:	4d c0       	rjmp	.+154    	; 0x72c <nokia_lcd_write_char+0xc4>
     692:	e0 52       	subi	r30, 0x20	; 32
     694:	85 e0       	ldi	r24, 0x05	; 5
     696:	e8 02       	muls	r30, r24
     698:	b0 01       	movw	r22, r0
     69a:	11 24       	eor	r1, r1
     69c:	68 59       	subi	r22, 0x98	; 152
     69e:	7f 4f       	sbci	r23, 0xFF	; 255
     6a0:	45 e0       	ldi	r20, 0x05	; 5
     6a2:	50 e0       	ldi	r21, 0x00	; 0
     6a4:	ce 01       	movw	r24, r28
     6a6:	01 96       	adiw	r24, 0x01	; 1
     6a8:	0e 94 5d 08 	call	0x10ba	; 0x10ba <memcpy_P>
     6ac:	8e 01       	movw	r16, r28
     6ae:	0f 5f       	subi	r16, 0xFF	; 255
     6b0:	1f 4f       	sbci	r17, 0xFF	; 255
     6b2:	95 e0       	ldi	r25, 0x05	; 5
     6b4:	f9 9e       	mul	r15, r25
     6b6:	50 01       	movw	r10, r0
     6b8:	11 24       	eor	r1, r1
     6ba:	87 e0       	ldi	r24, 0x07	; 7
     6bc:	f8 9e       	mul	r15, r24
     6be:	40 01       	movw	r8, r0
     6c0:	11 24       	eor	r1, r1
     6c2:	e1 2c       	mov	r14, r1
     6c4:	ea 14       	cp	r14, r10
     6c6:	1b 04       	cpc	r1, r11
     6c8:	0c f4       	brge	.+2      	; 0x6cc <nokia_lcd_write_char+0x64>
     6ca:	63 c0       	rjmp	.+198    	; 0x792 <nokia_lcd_write_char+0x12a>
     6cc:	80 91 7e 03 	lds	r24, 0x037E	; 0x80037e <nokia_lcd+0x1f8>
     6d0:	8f 5f       	subi	r24, 0xFF	; 255
     6d2:	9f 2d       	mov	r25, r15
     6d4:	99 0f       	add	r25, r25
     6d6:	99 0f       	add	r25, r25
     6d8:	9f 0d       	add	r25, r15
     6da:	89 0f       	add	r24, r25
     6dc:	80 93 7e 03 	sts	0x037E, r24	; 0x80037e <nokia_lcd+0x1f8>
     6e0:	84 35       	cpi	r24, 0x54	; 84
     6e2:	58 f0       	brcs	.+22     	; 0x6fa <nokia_lcd_write_char+0x92>
     6e4:	80 91 7f 03 	lds	r24, 0x037F	; 0x80037f <nokia_lcd+0x1f9>
     6e8:	10 92 7e 03 	sts	0x037E, r1	; 0x80037e <nokia_lcd+0x1f8>
     6ec:	8f 5f       	subi	r24, 0xFF	; 255
     6ee:	97 e0       	ldi	r25, 0x07	; 7
     6f0:	f9 9e       	mul	r15, r25
     6f2:	80 0d       	add	r24, r0
     6f4:	11 24       	eor	r1, r1
     6f6:	80 93 7f 03 	sts	0x037F, r24	; 0x80037f <nokia_lcd+0x1f9>
     6fa:	80 91 7f 03 	lds	r24, 0x037F	; 0x80037f <nokia_lcd+0x1f9>
     6fe:	80 33       	cpi	r24, 0x30	; 48
     700:	20 f0       	brcs	.+8      	; 0x70a <nokia_lcd_write_char+0xa2>
     702:	10 92 7e 03 	sts	0x037E, r1	; 0x80037e <nokia_lcd+0x1f8>
     706:	10 92 7f 03 	sts	0x037F, r1	; 0x80037f <nokia_lcd+0x1f9>
     70a:	0f 90       	pop	r0
     70c:	0f 90       	pop	r0
     70e:	0f 90       	pop	r0
     710:	0f 90       	pop	r0
     712:	0f 90       	pop	r0
     714:	df 91       	pop	r29
     716:	cf 91       	pop	r28
     718:	1f 91       	pop	r17
     71a:	0f 91       	pop	r16
     71c:	ff 90       	pop	r15
     71e:	ef 90       	pop	r14
     720:	df 90       	pop	r13
     722:	bf 90       	pop	r11
     724:	af 90       	pop	r10
     726:	9f 90       	pop	r9
     728:	8f 90       	pop	r8
     72a:	08 95       	ret
     72c:	ee 0f       	add	r30, r30
     72e:	ff 0b       	sbc	r31, r31
     730:	ea 5b       	subi	r30, 0xBA	; 186
     732:	fe 4f       	sbci	r31, 0xFE	; 254
     734:	00 81       	ld	r16, Z
     736:	11 81       	ldd	r17, Z+1	; 0x01
     738:	01 15       	cp	r16, r1
     73a:	11 05       	cpc	r17, r1
     73c:	09 f0       	breq	.+2      	; 0x740 <nokia_lcd_write_char+0xd8>
     73e:	b9 cf       	rjmp	.-142    	; 0x6b2 <nokia_lcd_write_char+0x4a>
     740:	45 e0       	ldi	r20, 0x05	; 5
     742:	50 e0       	ldi	r21, 0x00	; 0
     744:	68 e6       	ldi	r22, 0x68	; 104
     746:	70 e0       	ldi	r23, 0x00	; 0
     748:	ad cf       	rjmp	.-166    	; 0x6a4 <nokia_lcd_write_char+0x3c>
     74a:	ed 0d       	add	r30, r13
     74c:	5e 0d       	add	r21, r14
     74e:	8e 2d       	mov	r24, r14
     750:	6f 2d       	mov	r22, r15
     752:	0e 94 15 06 	call	0xc2a	; 0xc2a <__udivmodqi4>
     756:	d8 01       	movw	r26, r16
     758:	a8 0f       	add	r26, r24
     75a:	b1 1d       	adc	r27, r1
     75c:	2c 91       	ld	r18, X
     75e:	30 e0       	ldi	r19, 0x00	; 0
     760:	8d 2d       	mov	r24, r13
     762:	0e 94 15 06 	call	0xc2a	; 0xc2a <__udivmodqi4>
     766:	02 c0       	rjmp	.+4      	; 0x76c <nokia_lcd_write_char+0x104>
     768:	35 95       	asr	r19
     76a:	27 95       	ror	r18
     76c:	8a 95       	dec	r24
     76e:	e2 f7       	brpl	.-8      	; 0x768 <nokia_lcd_write_char+0x100>
     770:	41 e0       	ldi	r20, 0x01	; 1
     772:	20 ff       	sbrs	r18, 0
     774:	40 e0       	ldi	r20, 0x00	; 0
     776:	6e 2f       	mov	r22, r30
     778:	85 2f       	mov	r24, r21
     77a:	0e 94 17 03 	call	0x62e	; 0x62e <nokia_lcd_set_pixel>
     77e:	d3 94       	inc	r13
     780:	e0 91 7f 03 	lds	r30, 0x037F	; 0x80037f <nokia_lcd+0x1f9>
     784:	50 91 7e 03 	lds	r21, 0x037E	; 0x80037e <nokia_lcd+0x1f8>
     788:	d8 14       	cp	r13, r8
     78a:	19 04       	cpc	r1, r9
     78c:	f4 f2       	brlt	.-68     	; 0x74a <nokia_lcd_write_char+0xe2>
     78e:	e3 94       	inc	r14
     790:	99 cf       	rjmp	.-206    	; 0x6c4 <nokia_lcd_write_char+0x5c>
     792:	d1 2c       	mov	r13, r1
     794:	f5 cf       	rjmp	.-22     	; 0x780 <nokia_lcd_write_char+0x118>

00000796 <nokia_lcd_custom>:
     796:	e8 2f       	mov	r30, r24
     798:	80 32       	cpi	r24, 0x20	; 32
     79a:	34 f4       	brge	.+12     	; 0x7a8 <nokia_lcd_custom+0x12>
     79c:	ee 0f       	add	r30, r30
     79e:	ff 0b       	sbc	r31, r31
     7a0:	ea 5b       	subi	r30, 0xBA	; 186
     7a2:	fe 4f       	sbci	r31, 0xFE	; 254
     7a4:	71 83       	std	Z+1, r23	; 0x01
     7a6:	60 83       	st	Z, r22
     7a8:	08 95       	ret

000007aa <nokia_lcd_write_string>:
     7aa:	1f 93       	push	r17
     7ac:	cf 93       	push	r28
     7ae:	df 93       	push	r29
     7b0:	16 2f       	mov	r17, r22
     7b2:	ec 01       	movw	r28, r24
     7b4:	89 91       	ld	r24, Y+
     7b6:	81 11       	cpse	r24, r1
     7b8:	04 c0       	rjmp	.+8      	; 0x7c2 <nokia_lcd_write_string+0x18>
     7ba:	df 91       	pop	r29
     7bc:	cf 91       	pop	r28
     7be:	1f 91       	pop	r17
     7c0:	08 95       	ret
     7c2:	61 2f       	mov	r22, r17
     7c4:	0e 94 34 03 	call	0x668	; 0x668 <nokia_lcd_write_char>
     7c8:	f5 cf       	rjmp	.-22     	; 0x7b4 <nokia_lcd_write_string+0xa>

000007ca <nokia_lcd_set_cursor>:
     7ca:	80 93 7e 03 	sts	0x037E, r24	; 0x80037e <nokia_lcd+0x1f8>
     7ce:	60 93 7f 03 	sts	0x037F, r22	; 0x80037f <nokia_lcd+0x1f9>
     7d2:	08 95       	ret

000007d4 <nokia_lcd_draw_line>:
     7d4:	3f 92       	push	r3
     7d6:	4f 92       	push	r4
     7d8:	5f 92       	push	r5
     7da:	6f 92       	push	r6
     7dc:	7f 92       	push	r7
     7de:	8f 92       	push	r8
     7e0:	9f 92       	push	r9
     7e2:	af 92       	push	r10
     7e4:	bf 92       	push	r11
     7e6:	cf 92       	push	r12
     7e8:	df 92       	push	r13
     7ea:	ef 92       	push	r14
     7ec:	ff 92       	push	r15
     7ee:	0f 93       	push	r16
     7f0:	1f 93       	push	r17
     7f2:	cf 93       	push	r28
     7f4:	df 93       	push	r29
     7f6:	cd b7       	in	r28, 0x3d	; 61
     7f8:	de b7       	in	r29, 0x3e	; 62
     7fa:	2d 97       	sbiw	r28, 0x0d	; 13
     7fc:	0f b6       	in	r0, 0x3f	; 63
     7fe:	f8 94       	cli
     800:	de bf       	out	0x3e, r29	; 62
     802:	0f be       	out	0x3f, r0	; 63
     804:	cd bf       	out	0x3d, r28	; 61
     806:	89 87       	std	Y+9, r24	; 0x09
     808:	6d 87       	std	Y+13, r22	; 0x0d
     80a:	04 2f       	mov	r16, r20
     80c:	08 1b       	sub	r16, r24
     80e:	12 2f       	mov	r17, r18
     810:	16 1b       	sub	r17, r22
     812:	30 2e       	mov	r3, r16
     814:	01 17       	cp	r16, r17
     816:	08 f4       	brcc	.+2      	; 0x81a <nokia_lcd_draw_line+0x46>
     818:	31 2e       	mov	r3, r17
     81a:	83 2d       	mov	r24, r3
     81c:	90 e0       	ldi	r25, 0x00	; 0
     81e:	b0 e0       	ldi	r27, 0x00	; 0
     820:	a0 e0       	ldi	r26, 0x00	; 0
     822:	89 83       	std	Y+1, r24	; 0x01
     824:	9a 83       	std	Y+2, r25	; 0x02
     826:	ab 83       	std	Y+3, r26	; 0x03
     828:	bc 83       	std	Y+4, r27	; 0x04
     82a:	bc 01       	movw	r22, r24
     82c:	cd 01       	movw	r24, r26
     82e:	0e 94 59 07 	call	0xeb2	; 0xeb2 <__floatsisf>
     832:	6b 01       	movw	r12, r22
     834:	7c 01       	movw	r14, r24
     836:	80 2f       	mov	r24, r16
     838:	90 e0       	ldi	r25, 0x00	; 0
     83a:	b0 e0       	ldi	r27, 0x00	; 0
     83c:	a0 e0       	ldi	r26, 0x00	; 0
     83e:	89 83       	std	Y+1, r24	; 0x01
     840:	9a 83       	std	Y+2, r25	; 0x02
     842:	ab 83       	std	Y+3, r26	; 0x03
     844:	bc 83       	std	Y+4, r27	; 0x04
     846:	bc 01       	movw	r22, r24
     848:	cd 01       	movw	r24, r26
     84a:	0e 94 57 07 	call	0xeae	; 0xeae <__floatunsisf>
     84e:	69 83       	std	Y+1, r22	; 0x01
     850:	7a 83       	std	Y+2, r23	; 0x02
     852:	8b 83       	std	Y+3, r24	; 0x03
     854:	9c 83       	std	Y+4, r25	; 0x04
     856:	a7 01       	movw	r20, r14
     858:	96 01       	movw	r18, r12
     85a:	0e 94 b6 06 	call	0xd6c	; 0xd6c <__divsf3>
     85e:	2b 01       	movw	r4, r22
     860:	3c 01       	movw	r6, r24
     862:	81 2f       	mov	r24, r17
     864:	90 e0       	ldi	r25, 0x00	; 0
     866:	b0 e0       	ldi	r27, 0x00	; 0
     868:	a0 e0       	ldi	r26, 0x00	; 0
     86a:	89 83       	std	Y+1, r24	; 0x01
     86c:	9a 83       	std	Y+2, r25	; 0x02
     86e:	ab 83       	std	Y+3, r26	; 0x03
     870:	bc 83       	std	Y+4, r27	; 0x04
     872:	bc 01       	movw	r22, r24
     874:	cd 01       	movw	r24, r26
     876:	0e 94 57 07 	call	0xeae	; 0xeae <__floatunsisf>
     87a:	69 83       	std	Y+1, r22	; 0x01
     87c:	7a 83       	std	Y+2, r23	; 0x02
     87e:	8b 83       	std	Y+3, r24	; 0x03
     880:	9c 83       	std	Y+4, r25	; 0x04
     882:	a7 01       	movw	r20, r14
     884:	96 01       	movw	r18, r12
     886:	0e 94 b6 06 	call	0xd6c	; 0xd6c <__divsf3>
     88a:	6b 01       	movw	r12, r22
     88c:	7c 01       	movw	r14, r24
     88e:	99 85       	ldd	r25, Y+9	; 0x09
     890:	89 2f       	mov	r24, r25
     892:	90 e0       	ldi	r25, 0x00	; 0
     894:	b0 e0       	ldi	r27, 0x00	; 0
     896:	a0 e0       	ldi	r26, 0x00	; 0
     898:	89 83       	std	Y+1, r24	; 0x01
     89a:	9a 83       	std	Y+2, r25	; 0x02
     89c:	ab 83       	std	Y+3, r26	; 0x03
     89e:	bc 83       	std	Y+4, r27	; 0x04
     8a0:	bc 01       	movw	r22, r24
     8a2:	cd 01       	movw	r24, r26
     8a4:	0e 94 57 07 	call	0xeae	; 0xeae <__floatunsisf>
     8a8:	69 83       	std	Y+1, r22	; 0x01
     8aa:	7a 83       	std	Y+2, r23	; 0x02
     8ac:	8b 83       	std	Y+3, r24	; 0x03
     8ae:	9c 83       	std	Y+4, r25	; 0x04
     8b0:	9d 85       	ldd	r25, Y+13	; 0x0d
     8b2:	89 2f       	mov	r24, r25
     8b4:	90 e0       	ldi	r25, 0x00	; 0
     8b6:	b0 e0       	ldi	r27, 0x00	; 0
     8b8:	a0 e0       	ldi	r26, 0x00	; 0
     8ba:	8d 83       	std	Y+5, r24	; 0x05
     8bc:	9e 83       	std	Y+6, r25	; 0x06
     8be:	af 83       	std	Y+7, r26	; 0x07
     8c0:	b8 87       	std	Y+8, r27	; 0x08
     8c2:	bc 01       	movw	r22, r24
     8c4:	cd 01       	movw	r24, r26
     8c6:	0e 94 57 07 	call	0xeae	; 0xeae <__floatunsisf>
     8ca:	6d 83       	std	Y+5, r22	; 0x05
     8cc:	7e 83       	std	Y+6, r23	; 0x06
     8ce:	8f 83       	std	Y+7, r24	; 0x07
     8d0:	98 87       	std	Y+8, r25	; 0x08
     8d2:	41 e0       	ldi	r20, 0x01	; 1
     8d4:	6d 85       	ldd	r22, Y+13	; 0x0d
     8d6:	89 85       	ldd	r24, Y+9	; 0x09
     8d8:	0e 94 17 03 	call	0x62e	; 0x62e <nokia_lcd_set_pixel>
     8dc:	1d 86       	std	Y+13, r1	; 0x0d
     8de:	bd 85       	ldd	r27, Y+13	; 0x0d
     8e0:	b3 11       	cpse	r27, r3
     8e2:	18 c0       	rjmp	.+48     	; 0x914 <__stack+0x15>
     8e4:	2d 96       	adiw	r28, 0x0d	; 13
     8e6:	0f b6       	in	r0, 0x3f	; 63
     8e8:	f8 94       	cli
     8ea:	de bf       	out	0x3e, r29	; 62
     8ec:	0f be       	out	0x3f, r0	; 63
     8ee:	cd bf       	out	0x3d, r28	; 61
     8f0:	df 91       	pop	r29
     8f2:	cf 91       	pop	r28
     8f4:	1f 91       	pop	r17
     8f6:	0f 91       	pop	r16
     8f8:	ff 90       	pop	r15
     8fa:	ef 90       	pop	r14
     8fc:	df 90       	pop	r13
     8fe:	cf 90       	pop	r12
     900:	bf 90       	pop	r11
     902:	af 90       	pop	r10
     904:	9f 90       	pop	r9
     906:	8f 90       	pop	r8
     908:	7f 90       	pop	r7
     90a:	6f 90       	pop	r6
     90c:	5f 90       	pop	r5
     90e:	4f 90       	pop	r4
     910:	3f 90       	pop	r3
     912:	08 95       	ret
     914:	a3 01       	movw	r20, r6
     916:	92 01       	movw	r18, r4
     918:	69 81       	ldd	r22, Y+1	; 0x01
     91a:	7a 81       	ldd	r23, Y+2	; 0x02
     91c:	8b 81       	ldd	r24, Y+3	; 0x03
     91e:	9c 81       	ldd	r25, Y+4	; 0x04
     920:	0e 94 4a 06 	call	0xc94	; 0xc94 <__addsf3>
     924:	69 83       	std	Y+1, r22	; 0x01
     926:	7a 83       	std	Y+2, r23	; 0x02
     928:	8b 83       	std	Y+3, r24	; 0x03
     92a:	9c 83       	std	Y+4, r25	; 0x04
     92c:	a7 01       	movw	r20, r14
     92e:	96 01       	movw	r18, r12
     930:	6d 81       	ldd	r22, Y+5	; 0x05
     932:	7e 81       	ldd	r23, Y+6	; 0x06
     934:	8f 81       	ldd	r24, Y+7	; 0x07
     936:	98 85       	ldd	r25, Y+8	; 0x08
     938:	0e 94 4a 06 	call	0xc94	; 0xc94 <__addsf3>
     93c:	6d 83       	std	Y+5, r22	; 0x05
     93e:	7e 83       	std	Y+6, r23	; 0x06
     940:	8f 83       	std	Y+7, r24	; 0x07
     942:	98 87       	std	Y+8, r25	; 0x08
     944:	0e 94 28 07 	call	0xe50	; 0xe50 <__fixunssfsi>
     948:	69 87       	std	Y+9, r22	; 0x09
     94a:	7a 87       	std	Y+10, r23	; 0x0a
     94c:	8b 87       	std	Y+11, r24	; 0x0b
     94e:	9c 87       	std	Y+12, r25	; 0x0c
     950:	4b 01       	movw	r8, r22
     952:	69 81       	ldd	r22, Y+1	; 0x01
     954:	7a 81       	ldd	r23, Y+2	; 0x02
     956:	8b 81       	ldd	r24, Y+3	; 0x03
     958:	9c 81       	ldd	r25, Y+4	; 0x04
     95a:	0e 94 28 07 	call	0xe50	; 0xe50 <__fixunssfsi>
     95e:	69 87       	std	Y+9, r22	; 0x09
     960:	7a 87       	std	Y+10, r23	; 0x0a
     962:	8b 87       	std	Y+11, r24	; 0x0b
     964:	9c 87       	std	Y+12, r25	; 0x0c
     966:	41 e0       	ldi	r20, 0x01	; 1
     968:	68 2d       	mov	r22, r8
     96a:	89 85       	ldd	r24, Y+9	; 0x09
     96c:	0e 94 17 03 	call	0x62e	; 0x62e <nokia_lcd_set_pixel>
     970:	ad 85       	ldd	r26, Y+13	; 0x0d
     972:	af 5f       	subi	r26, 0xFF	; 255
     974:	ad 87       	std	Y+13, r26	; 0x0d
     976:	b3 cf       	rjmp	.-154    	; 0x8de <nokia_lcd_draw_line+0x10a>

00000978 <nokia_lcd_draw_circle>:
     978:	af 92       	push	r10
     97a:	bf 92       	push	r11
     97c:	cf 92       	push	r12
     97e:	df 92       	push	r13
     980:	ef 92       	push	r14
     982:	ff 92       	push	r15
     984:	0f 93       	push	r16
     986:	1f 93       	push	r17
     988:	cf 93       	push	r28
     98a:	df 93       	push	r29
     98c:	08 2f       	mov	r16, r24
     98e:	f6 2e       	mov	r15, r22
     990:	c4 2f       	mov	r28, r20
     992:	d1 e0       	ldi	r29, 0x01	; 1
     994:	d4 1b       	sub	r29, r20
     996:	10 e0       	ldi	r17, 0x00	; 0
     998:	41 e0       	ldi	r20, 0x01	; 1
     99a:	df 2c       	mov	r13, r15
     99c:	d1 0e       	add	r13, r17
     99e:	6d 2d       	mov	r22, r13
     9a0:	e0 2e       	mov	r14, r16
     9a2:	ec 0e       	add	r14, r28
     9a4:	8e 2d       	mov	r24, r14
     9a6:	0e 94 17 03 	call	0x62e	; 0x62e <nokia_lcd_set_pixel>
     9aa:	41 e0       	ldi	r20, 0x01	; 1
     9ac:	bf 2c       	mov	r11, r15
     9ae:	bc 0e       	add	r11, r28
     9b0:	6b 2d       	mov	r22, r11
     9b2:	c0 2e       	mov	r12, r16
     9b4:	c1 0e       	add	r12, r17
     9b6:	8c 2d       	mov	r24, r12
     9b8:	0e 94 17 03 	call	0x62e	; 0x62e <nokia_lcd_set_pixel>
     9bc:	41 e0       	ldi	r20, 0x01	; 1
     9be:	6b 2d       	mov	r22, r11
     9c0:	a0 2e       	mov	r10, r16
     9c2:	a1 1a       	sub	r10, r17
     9c4:	8a 2d       	mov	r24, r10
     9c6:	0e 94 17 03 	call	0x62e	; 0x62e <nokia_lcd_set_pixel>
     9ca:	41 e0       	ldi	r20, 0x01	; 1
     9cc:	6d 2d       	mov	r22, r13
     9ce:	b0 2e       	mov	r11, r16
     9d0:	bc 1a       	sub	r11, r28
     9d2:	8b 2d       	mov	r24, r11
     9d4:	0e 94 17 03 	call	0x62e	; 0x62e <nokia_lcd_set_pixel>
     9d8:	41 e0       	ldi	r20, 0x01	; 1
     9da:	df 2c       	mov	r13, r15
     9dc:	d1 1a       	sub	r13, r17
     9de:	6d 2d       	mov	r22, r13
     9e0:	8b 2d       	mov	r24, r11
     9e2:	0e 94 17 03 	call	0x62e	; 0x62e <nokia_lcd_set_pixel>
     9e6:	41 e0       	ldi	r20, 0x01	; 1
     9e8:	bf 2c       	mov	r11, r15
     9ea:	bc 1a       	sub	r11, r28
     9ec:	6b 2d       	mov	r22, r11
     9ee:	8a 2d       	mov	r24, r10
     9f0:	0e 94 17 03 	call	0x62e	; 0x62e <nokia_lcd_set_pixel>
     9f4:	41 e0       	ldi	r20, 0x01	; 1
     9f6:	6b 2d       	mov	r22, r11
     9f8:	8c 2d       	mov	r24, r12
     9fa:	0e 94 17 03 	call	0x62e	; 0x62e <nokia_lcd_set_pixel>
     9fe:	41 e0       	ldi	r20, 0x01	; 1
     a00:	6d 2d       	mov	r22, r13
     a02:	8e 2d       	mov	r24, r14
     a04:	0e 94 17 03 	call	0x62e	; 0x62e <nokia_lcd_set_pixel>
     a08:	d1 11       	cpse	r29, r1
     a0a:	12 c0       	rjmp	.+36     	; 0xa30 <nokia_lcd_draw_circle+0xb8>
     a0c:	1f 5f       	subi	r17, 0xFF	; 255
     a0e:	d1 2f       	mov	r29, r17
     a10:	dd 0f       	add	r29, r29
     a12:	df 5f       	subi	r29, 0xFF	; 255
     a14:	c1 17       	cp	r28, r17
     a16:	08 f0       	brcs	.+2      	; 0xa1a <nokia_lcd_draw_circle+0xa2>
     a18:	bf cf       	rjmp	.-130    	; 0x998 <nokia_lcd_draw_circle+0x20>
     a1a:	df 91       	pop	r29
     a1c:	cf 91       	pop	r28
     a1e:	1f 91       	pop	r17
     a20:	0f 91       	pop	r16
     a22:	ff 90       	pop	r15
     a24:	ef 90       	pop	r14
     a26:	df 90       	pop	r13
     a28:	cf 90       	pop	r12
     a2a:	bf 90       	pop	r11
     a2c:	af 90       	pop	r10
     a2e:	08 95       	ret
     a30:	c1 50       	subi	r28, 0x01	; 1
     a32:	df 5f       	subi	r29, 0xFF	; 255
     a34:	8c 2f       	mov	r24, r28
     a36:	88 0f       	add	r24, r24
     a38:	d8 1b       	sub	r29, r24
     a3a:	ec cf       	rjmp	.-40     	; 0xa14 <nokia_lcd_draw_circle+0x9c>

00000a3c <nokia_lcd_draw_rectangle>:
     a3c:	0f 93       	push	r16
     a3e:	1f 93       	push	r17
     a40:	cf 93       	push	r28
     a42:	df 93       	push	r29
     a44:	08 2f       	mov	r16, r24
     a46:	d6 2f       	mov	r29, r22
     a48:	c4 2f       	mov	r28, r20
     a4a:	12 2f       	mov	r17, r18
     a4c:	26 2f       	mov	r18, r22
     a4e:	0e 94 ea 03 	call	0x7d4	; 0x7d4 <nokia_lcd_draw_line>
     a52:	21 2f       	mov	r18, r17
     a54:	4c 2f       	mov	r20, r28
     a56:	61 2f       	mov	r22, r17
     a58:	80 2f       	mov	r24, r16
     a5a:	0e 94 ea 03 	call	0x7d4	; 0x7d4 <nokia_lcd_draw_line>
     a5e:	21 2f       	mov	r18, r17
     a60:	40 2f       	mov	r20, r16
     a62:	6d 2f       	mov	r22, r29
     a64:	80 2f       	mov	r24, r16
     a66:	0e 94 ea 03 	call	0x7d4	; 0x7d4 <nokia_lcd_draw_line>
     a6a:	21 2f       	mov	r18, r17
     a6c:	4c 2f       	mov	r20, r28
     a6e:	6d 2f       	mov	r22, r29
     a70:	8c 2f       	mov	r24, r28
     a72:	df 91       	pop	r29
     a74:	cf 91       	pop	r28
     a76:	1f 91       	pop	r17
     a78:	0f 91       	pop	r16
     a7a:	0c 94 ea 03 	jmp	0x7d4	; 0x7d4 <nokia_lcd_draw_line>

00000a7e <nokia_lcd_render>:
     a7e:	cf 93       	push	r28
     a80:	df 93       	push	r29
     a82:	80 e8       	ldi	r24, 0x80	; 128
     a84:	0e 94 b5 02 	call	0x56a	; 0x56a <write_cmd>
     a88:	80 e4       	ldi	r24, 0x40	; 64
     a8a:	0e 94 b5 02 	call	0x56a	; 0x56a <write_cmd>
     a8e:	c6 e8       	ldi	r28, 0x86	; 134
     a90:	d1 e0       	ldi	r29, 0x01	; 1
     a92:	61 e0       	ldi	r22, 0x01	; 1
     a94:	89 91       	ld	r24, Y+
     a96:	0e 94 99 02 	call	0x532	; 0x532 <write>
     a9a:	83 e0       	ldi	r24, 0x03	; 3
     a9c:	ce 37       	cpi	r28, 0x7E	; 126
     a9e:	d8 07       	cpc	r29, r24
     aa0:	c1 f7       	brne	.-16     	; 0xa92 <nokia_lcd_render+0x14>
     aa2:	df 91       	pop	r29
     aa4:	cf 91       	pop	r28
     aa6:	08 95       	ret

00000aa8 <main>:
     aa8:	00 d0       	rcall	.+0      	; 0xaaa <main+0x2>
     aaa:	00 d0       	rcall	.+0      	; 0xaac <main+0x4>
     aac:	00 d0       	rcall	.+0      	; 0xaae <main+0x6>
     aae:	0f 92       	push	r0
     ab0:	cd b7       	in	r28, 0x3d	; 61
     ab2:	de b7       	in	r29, 0x3e	; 62
     ab4:	f8 94       	cli
     ab6:	87 b1       	in	r24, 0x07	; 7
     ab8:	88 63       	ori	r24, 0x38	; 56
     aba:	87 b9       	out	0x07, r24	; 7
     abc:	8a b1       	in	r24, 0x0a	; 10
     abe:	80 7e       	andi	r24, 0xE0	; 224
     ac0:	8a b9       	out	0x0a, r24	; 10
     ac2:	8b b1       	in	r24, 0x0b	; 11
     ac4:	8f 61       	ori	r24, 0x1F	; 31
     ac6:	8b b9       	out	0x0b, r24	; 11
     ac8:	0e 94 b8 02 	call	0x570	; 0x570 <nokia_lcd_init>
     acc:	0e 94 fb 02 	call	0x5f6	; 0x5f6 <nokia_lcd_clear>
     ad0:	0e 94 81 02 	call	0x502	; 0x502 <timer1_init>
     ad4:	10 e0       	ldi	r17, 0x00	; 0
     ad6:	00 e0       	ldi	r16, 0x00	; 0
     ad8:	48 99       	sbic	0x09, 0	; 9
     ada:	77 c0       	rjmp	.+238    	; 0xbca <main+0x122>
     adc:	48 9b       	sbis	0x09, 0	; 9
     ade:	fe cf       	rjmp	.-4      	; 0xadc <main+0x34>
     ae0:	c8 01       	movw	r24, r16
     ae2:	0e 94 52 08 	call	0x10a4	; 0x10a4 <srand>
     ae6:	78 94       	sei
     ae8:	0e 94 4d 08 	call	0x109a	; 0x109a <rand>
     aec:	65 e0       	ldi	r22, 0x05	; 5
     aee:	70 e0       	ldi	r23, 0x00	; 0
     af0:	0e 94 21 06 	call	0xc42	; 0xc42 <__divmodhi4>
     af4:	18 2f       	mov	r17, r24
     af6:	ee 24       	eor	r14, r14
     af8:	e3 94       	inc	r14
     afa:	f1 2c       	mov	r15, r1
     afc:	01 e0       	ldi	r16, 0x01	; 1
     afe:	5e 01       	movw	r10, r28
     b00:	86 e0       	ldi	r24, 0x06	; 6
     b02:	a8 0e       	add	r10, r24
     b04:	b1 1c       	adc	r11, r1
     b06:	95 e0       	ldi	r25, 0x05	; 5
     b08:	c9 2e       	mov	r12, r25
     b0a:	d1 2c       	mov	r13, r1
     b0c:	8d b7       	in	r24, 0x3d	; 61
     b0e:	9e b7       	in	r25, 0x3e	; 62
     b10:	9f 83       	std	Y+7, r25	; 0x07
     b12:	8e 83       	std	Y+6, r24	; 0x06
     b14:	0e 94 d3 01 	call	0x3a6	; 0x3a6 <render_timer_points>
     b18:	80 90 00 01 	lds	r8, 0x0100	; 0x800100 <editable_interr_count>
     b1c:	90 90 01 01 	lds	r9, 0x0101	; 0x800101 <editable_interr_count+0x1>
     b20:	95 e0       	ldi	r25, 0x05	; 5
     b22:	89 16       	cp	r8, r25
     b24:	91 04       	cpc	r9, r1
     b26:	51 f4       	brne	.+20     	; 0xb3c <main+0x94>
     b28:	0e 94 4d 08 	call	0x109a	; 0x109a <rand>
     b2c:	b4 01       	movw	r22, r8
     b2e:	0e 94 21 06 	call	0xc42	; 0xc42 <__divmodhi4>
     b32:	18 2f       	mov	r17, r24
     b34:	f0 92 01 01 	sts	0x0101, r15	; 0x800101 <editable_interr_count+0x1>
     b38:	e0 92 00 01 	sts	0x0100, r14	; 0x800100 <editable_interr_count>
     b3c:	65 e0       	ldi	r22, 0x05	; 5
     b3e:	81 2f       	mov	r24, r17
     b40:	0e 94 1d 02 	call	0x43a	; 0x43a <render_table>
     b44:	19 82       	std	Y+1, r1	; 0x01
     b46:	1a 82       	std	Y+2, r1	; 0x02
     b48:	1b 82       	std	Y+3, r1	; 0x03
     b4a:	1c 82       	std	Y+4, r1	; 0x04
     b4c:	1d 82       	std	Y+5, r1	; 0x05
     b4e:	71 2c       	mov	r7, r1
     b50:	61 2c       	mov	r6, r1
     b52:	89 b1       	in	r24, 0x09	; 9
     b54:	90 e0       	ldi	r25, 0x00	; 0
     b56:	06 2c       	mov	r0, r6
     b58:	02 c0       	rjmp	.+4      	; 0xb5e <main+0xb6>
     b5a:	95 95       	asr	r25
     b5c:	87 95       	ror	r24
     b5e:	0a 94       	dec	r0
     b60:	e2 f7       	brpl	.-8      	; 0xb5a <main+0xb2>
     b62:	80 fd       	sbrc	r24, 0
     b64:	50 c0       	rjmp	.+160    	; 0xc06 <main+0x15e>
     b66:	47 01       	movw	r8, r14
     b68:	06 2c       	mov	r0, r6
     b6a:	02 c0       	rjmp	.+4      	; 0xb70 <main+0xc8>
     b6c:	88 0c       	add	r8, r8
     b6e:	99 1c       	adc	r9, r9
     b70:	0a 94       	dec	r0
     b72:	e2 f7       	brpl	.-8      	; 0xb6c <main+0xc4>
     b74:	89 b1       	in	r24, 0x09	; 9
     b76:	90 e0       	ldi	r25, 0x00	; 0
     b78:	88 21       	and	r24, r8
     b7a:	99 21       	and	r25, r9
     b7c:	89 2b       	or	r24, r25
     b7e:	e1 f1       	breq	.+120    	; 0xbf8 <main+0x150>
     b80:	e1 e0       	ldi	r30, 0x01	; 1
     b82:	f0 e0       	ldi	r31, 0x00	; 0
     b84:	ec 0f       	add	r30, r28
     b86:	fd 1f       	adc	r31, r29
     b88:	e6 0d       	add	r30, r6
     b8a:	f7 1d       	adc	r31, r7
     b8c:	00 83       	st	Z, r16
     b8e:	e1 e0       	ldi	r30, 0x01	; 1
     b90:	f0 e0       	ldi	r31, 0x00	; 0
     b92:	ec 0f       	add	r30, r28
     b94:	fd 1f       	adc	r31, r29
     b96:	e1 0f       	add	r30, r17
     b98:	f1 1d       	adc	r31, r1
     b9a:	80 81       	ld	r24, Z
     b9c:	88 23       	and	r24, r24
     b9e:	e1 f1       	breq	.+120    	; 0xc18 <main+0x170>
     ba0:	80 91 42 01 	lds	r24, 0x0142	; 0x800142 <points_counter>
     ba4:	90 91 43 01 	lds	r25, 0x0143	; 0x800143 <points_counter+0x1>
     ba8:	01 96       	adiw	r24, 0x01	; 1
     baa:	90 93 43 01 	sts	0x0143, r25	; 0x800143 <points_counter+0x1>
     bae:	80 93 42 01 	sts	0x0142, r24	; 0x800142 <points_counter>
     bb2:	0e 94 4d 08 	call	0x109a	; 0x109a <rand>
     bb6:	b6 01       	movw	r22, r12
     bb8:	0e 94 21 06 	call	0xc42	; 0xc42 <__divmodhi4>
     bbc:	18 2f       	mov	r17, r24
     bbe:	0f b6       	in	r0, 0x3f	; 63
     bc0:	f8 94       	cli
     bc2:	de bf       	out	0x3e, r29	; 62
     bc4:	0f be       	out	0x3f, r0	; 63
     bc6:	cd bf       	out	0x3d, r28	; 61
     bc8:	a1 cf       	rjmp	.-190    	; 0xb0c <main+0x64>
     bca:	6f e0       	ldi	r22, 0x0F	; 15
     bcc:	87 e0       	ldi	r24, 0x07	; 7
     bce:	0e 94 e5 03 	call	0x7ca	; 0x7ca <nokia_lcd_set_cursor>
     bd2:	61 e0       	ldi	r22, 0x01	; 1
     bd4:	87 e2       	ldi	r24, 0x27	; 39
     bd6:	91 e0       	ldi	r25, 0x01	; 1
     bd8:	0e 94 d5 03 	call	0x7aa	; 0x7aa <nokia_lcd_write_string>
     bdc:	69 e1       	ldi	r22, 0x19	; 25
     bde:	86 e0       	ldi	r24, 0x06	; 6
     be0:	0e 94 e5 03 	call	0x7ca	; 0x7ca <nokia_lcd_set_cursor>
     be4:	61 e0       	ldi	r22, 0x01	; 1
     be6:	84 e3       	ldi	r24, 0x34	; 52
     be8:	91 e0       	ldi	r25, 0x01	; 1
     bea:	0e 94 d5 03 	call	0x7aa	; 0x7aa <nokia_lcd_write_string>
     bee:	0e 94 3f 05 	call	0xa7e	; 0xa7e <nokia_lcd_render>
     bf2:	0f 5f       	subi	r16, 0xFF	; 255
     bf4:	1f 4f       	sbci	r17, 0xFF	; 255
     bf6:	70 cf       	rjmp	.-288    	; 0xad8 <main+0x30>
     bf8:	0e 94 d3 01 	call	0x3a6	; 0x3a6 <render_timer_points>
     bfc:	65 e0       	ldi	r22, 0x05	; 5
     bfe:	81 2f       	mov	r24, r17
     c00:	0e 94 1d 02 	call	0x43a	; 0x43a <render_table>
     c04:	b7 cf       	rjmp	.-146    	; 0xb74 <main+0xcc>
     c06:	8f ef       	ldi	r24, 0xFF	; 255
     c08:	68 1a       	sub	r6, r24
     c0a:	78 0a       	sbc	r7, r24
     c0c:	95 e0       	ldi	r25, 0x05	; 5
     c0e:	69 16       	cp	r6, r25
     c10:	71 04       	cpc	r7, r1
     c12:	09 f0       	breq	.+2      	; 0xc16 <main+0x16e>
     c14:	9e cf       	rjmp	.-196    	; 0xb52 <main+0xaa>
     c16:	bb cf       	rjmp	.-138    	; 0xb8e <main+0xe6>
     c18:	fe 01       	movw	r30, r28
     c1a:	31 96       	adiw	r30, 0x01	; 1
     c1c:	81 91       	ld	r24, Z+
     c1e:	81 11       	cpse	r24, r1
     c20:	c8 cf       	rjmp	.-112    	; 0xbb2 <main+0x10a>
     c22:	ea 15       	cp	r30, r10
     c24:	fb 05       	cpc	r31, r11
     c26:	d1 f7       	brne	.-12     	; 0xc1c <main+0x174>
     c28:	ca cf       	rjmp	.-108    	; 0xbbe <main+0x116>

00000c2a <__udivmodqi4>:
     c2a:	99 1b       	sub	r25, r25
     c2c:	79 e0       	ldi	r23, 0x09	; 9
     c2e:	04 c0       	rjmp	.+8      	; 0xc38 <__udivmodqi4_ep>

00000c30 <__udivmodqi4_loop>:
     c30:	99 1f       	adc	r25, r25
     c32:	96 17       	cp	r25, r22
     c34:	08 f0       	brcs	.+2      	; 0xc38 <__udivmodqi4_ep>
     c36:	96 1b       	sub	r25, r22

00000c38 <__udivmodqi4_ep>:
     c38:	88 1f       	adc	r24, r24
     c3a:	7a 95       	dec	r23
     c3c:	c9 f7       	brne	.-14     	; 0xc30 <__udivmodqi4_loop>
     c3e:	80 95       	com	r24
     c40:	08 95       	ret

00000c42 <__divmodhi4>:
     c42:	97 fb       	bst	r25, 7
     c44:	07 2e       	mov	r0, r23
     c46:	16 f4       	brtc	.+4      	; 0xc4c <__divmodhi4+0xa>
     c48:	00 94       	com	r0
     c4a:	07 d0       	rcall	.+14     	; 0xc5a <__divmodhi4_neg1>
     c4c:	77 fd       	sbrc	r23, 7
     c4e:	09 d0       	rcall	.+18     	; 0xc62 <__divmodhi4_neg2>
     c50:	0e 94 35 06 	call	0xc6a	; 0xc6a <__udivmodhi4>
     c54:	07 fc       	sbrc	r0, 7
     c56:	05 d0       	rcall	.+10     	; 0xc62 <__divmodhi4_neg2>
     c58:	3e f4       	brtc	.+14     	; 0xc68 <__divmodhi4_exit>

00000c5a <__divmodhi4_neg1>:
     c5a:	90 95       	com	r25
     c5c:	81 95       	neg	r24
     c5e:	9f 4f       	sbci	r25, 0xFF	; 255
     c60:	08 95       	ret

00000c62 <__divmodhi4_neg2>:
     c62:	70 95       	com	r23
     c64:	61 95       	neg	r22
     c66:	7f 4f       	sbci	r23, 0xFF	; 255

00000c68 <__divmodhi4_exit>:
     c68:	08 95       	ret

00000c6a <__udivmodhi4>:
     c6a:	aa 1b       	sub	r26, r26
     c6c:	bb 1b       	sub	r27, r27
     c6e:	51 e1       	ldi	r21, 0x11	; 17
     c70:	07 c0       	rjmp	.+14     	; 0xc80 <__udivmodhi4_ep>

00000c72 <__udivmodhi4_loop>:
     c72:	aa 1f       	adc	r26, r26
     c74:	bb 1f       	adc	r27, r27
     c76:	a6 17       	cp	r26, r22
     c78:	b7 07       	cpc	r27, r23
     c7a:	10 f0       	brcs	.+4      	; 0xc80 <__udivmodhi4_ep>
     c7c:	a6 1b       	sub	r26, r22
     c7e:	b7 0b       	sbc	r27, r23

00000c80 <__udivmodhi4_ep>:
     c80:	88 1f       	adc	r24, r24
     c82:	99 1f       	adc	r25, r25
     c84:	5a 95       	dec	r21
     c86:	a9 f7       	brne	.-22     	; 0xc72 <__udivmodhi4_loop>
     c88:	80 95       	com	r24
     c8a:	90 95       	com	r25
     c8c:	bc 01       	movw	r22, r24
     c8e:	cd 01       	movw	r24, r26
     c90:	08 95       	ret

00000c92 <__subsf3>:
     c92:	50 58       	subi	r21, 0x80	; 128

00000c94 <__addsf3>:
     c94:	bb 27       	eor	r27, r27
     c96:	aa 27       	eor	r26, r26
     c98:	0e 94 61 06 	call	0xcc2	; 0xcc2 <__addsf3x>
     c9c:	0c 94 ab 07 	jmp	0xf56	; 0xf56 <__fp_round>
     ca0:	0e 94 9d 07 	call	0xf3a	; 0xf3a <__fp_pscA>
     ca4:	38 f0       	brcs	.+14     	; 0xcb4 <__addsf3+0x20>
     ca6:	0e 94 a4 07 	call	0xf48	; 0xf48 <__fp_pscB>
     caa:	20 f0       	brcs	.+8      	; 0xcb4 <__addsf3+0x20>
     cac:	39 f4       	brne	.+14     	; 0xcbc <__addsf3+0x28>
     cae:	9f 3f       	cpi	r25, 0xFF	; 255
     cb0:	19 f4       	brne	.+6      	; 0xcb8 <__addsf3+0x24>
     cb2:	26 f4       	brtc	.+8      	; 0xcbc <__addsf3+0x28>
     cb4:	0c 94 9a 07 	jmp	0xf34	; 0xf34 <__fp_nan>
     cb8:	0e f4       	brtc	.+2      	; 0xcbc <__addsf3+0x28>
     cba:	e0 95       	com	r30
     cbc:	e7 fb       	bst	r30, 7
     cbe:	0c 94 94 07 	jmp	0xf28	; 0xf28 <__fp_inf>

00000cc2 <__addsf3x>:
     cc2:	e9 2f       	mov	r30, r25
     cc4:	0e 94 bc 07 	call	0xf78	; 0xf78 <__fp_split3>
     cc8:	58 f3       	brcs	.-42     	; 0xca0 <__addsf3+0xc>
     cca:	ba 17       	cp	r27, r26
     ccc:	62 07       	cpc	r22, r18
     cce:	73 07       	cpc	r23, r19
     cd0:	84 07       	cpc	r24, r20
     cd2:	95 07       	cpc	r25, r21
     cd4:	20 f0       	brcs	.+8      	; 0xcde <__addsf3x+0x1c>
     cd6:	79 f4       	brne	.+30     	; 0xcf6 <__addsf3x+0x34>
     cd8:	a6 f5       	brtc	.+104    	; 0xd42 <__addsf3x+0x80>
     cda:	0c 94 de 07 	jmp	0xfbc	; 0xfbc <__fp_zero>
     cde:	0e f4       	brtc	.+2      	; 0xce2 <__addsf3x+0x20>
     ce0:	e0 95       	com	r30
     ce2:	0b 2e       	mov	r0, r27
     ce4:	ba 2f       	mov	r27, r26
     ce6:	a0 2d       	mov	r26, r0
     ce8:	0b 01       	movw	r0, r22
     cea:	b9 01       	movw	r22, r18
     cec:	90 01       	movw	r18, r0
     cee:	0c 01       	movw	r0, r24
     cf0:	ca 01       	movw	r24, r20
     cf2:	a0 01       	movw	r20, r0
     cf4:	11 24       	eor	r1, r1
     cf6:	ff 27       	eor	r31, r31
     cf8:	59 1b       	sub	r21, r25
     cfa:	99 f0       	breq	.+38     	; 0xd22 <__addsf3x+0x60>
     cfc:	59 3f       	cpi	r21, 0xF9	; 249
     cfe:	50 f4       	brcc	.+20     	; 0xd14 <__addsf3x+0x52>
     d00:	50 3e       	cpi	r21, 0xE0	; 224
     d02:	68 f1       	brcs	.+90     	; 0xd5e <__addsf3x+0x9c>
     d04:	1a 16       	cp	r1, r26
     d06:	f0 40       	sbci	r31, 0x00	; 0
     d08:	a2 2f       	mov	r26, r18
     d0a:	23 2f       	mov	r18, r19
     d0c:	34 2f       	mov	r19, r20
     d0e:	44 27       	eor	r20, r20
     d10:	58 5f       	subi	r21, 0xF8	; 248
     d12:	f3 cf       	rjmp	.-26     	; 0xcfa <__addsf3x+0x38>
     d14:	46 95       	lsr	r20
     d16:	37 95       	ror	r19
     d18:	27 95       	ror	r18
     d1a:	a7 95       	ror	r26
     d1c:	f0 40       	sbci	r31, 0x00	; 0
     d1e:	53 95       	inc	r21
     d20:	c9 f7       	brne	.-14     	; 0xd14 <__addsf3x+0x52>
     d22:	7e f4       	brtc	.+30     	; 0xd42 <__addsf3x+0x80>
     d24:	1f 16       	cp	r1, r31
     d26:	ba 0b       	sbc	r27, r26
     d28:	62 0b       	sbc	r22, r18
     d2a:	73 0b       	sbc	r23, r19
     d2c:	84 0b       	sbc	r24, r20
     d2e:	ba f0       	brmi	.+46     	; 0xd5e <__addsf3x+0x9c>
     d30:	91 50       	subi	r25, 0x01	; 1
     d32:	a1 f0       	breq	.+40     	; 0xd5c <__addsf3x+0x9a>
     d34:	ff 0f       	add	r31, r31
     d36:	bb 1f       	adc	r27, r27
     d38:	66 1f       	adc	r22, r22
     d3a:	77 1f       	adc	r23, r23
     d3c:	88 1f       	adc	r24, r24
     d3e:	c2 f7       	brpl	.-16     	; 0xd30 <__addsf3x+0x6e>
     d40:	0e c0       	rjmp	.+28     	; 0xd5e <__addsf3x+0x9c>
     d42:	ba 0f       	add	r27, r26
     d44:	62 1f       	adc	r22, r18
     d46:	73 1f       	adc	r23, r19
     d48:	84 1f       	adc	r24, r20
     d4a:	48 f4       	brcc	.+18     	; 0xd5e <__addsf3x+0x9c>
     d4c:	87 95       	ror	r24
     d4e:	77 95       	ror	r23
     d50:	67 95       	ror	r22
     d52:	b7 95       	ror	r27
     d54:	f7 95       	ror	r31
     d56:	9e 3f       	cpi	r25, 0xFE	; 254
     d58:	08 f0       	brcs	.+2      	; 0xd5c <__addsf3x+0x9a>
     d5a:	b0 cf       	rjmp	.-160    	; 0xcbc <__addsf3+0x28>
     d5c:	93 95       	inc	r25
     d5e:	88 0f       	add	r24, r24
     d60:	08 f0       	brcs	.+2      	; 0xd64 <__addsf3x+0xa2>
     d62:	99 27       	eor	r25, r25
     d64:	ee 0f       	add	r30, r30
     d66:	97 95       	ror	r25
     d68:	87 95       	ror	r24
     d6a:	08 95       	ret

00000d6c <__divsf3>:
     d6c:	0e 94 ca 06 	call	0xd94	; 0xd94 <__divsf3x>
     d70:	0c 94 ab 07 	jmp	0xf56	; 0xf56 <__fp_round>
     d74:	0e 94 a4 07 	call	0xf48	; 0xf48 <__fp_pscB>
     d78:	58 f0       	brcs	.+22     	; 0xd90 <__divsf3+0x24>
     d7a:	0e 94 9d 07 	call	0xf3a	; 0xf3a <__fp_pscA>
     d7e:	40 f0       	brcs	.+16     	; 0xd90 <__divsf3+0x24>
     d80:	29 f4       	brne	.+10     	; 0xd8c <__divsf3+0x20>
     d82:	5f 3f       	cpi	r21, 0xFF	; 255
     d84:	29 f0       	breq	.+10     	; 0xd90 <__divsf3+0x24>
     d86:	0c 94 94 07 	jmp	0xf28	; 0xf28 <__fp_inf>
     d8a:	51 11       	cpse	r21, r1
     d8c:	0c 94 df 07 	jmp	0xfbe	; 0xfbe <__fp_szero>
     d90:	0c 94 9a 07 	jmp	0xf34	; 0xf34 <__fp_nan>

00000d94 <__divsf3x>:
     d94:	0e 94 bc 07 	call	0xf78	; 0xf78 <__fp_split3>
     d98:	68 f3       	brcs	.-38     	; 0xd74 <__divsf3+0x8>

00000d9a <__divsf3_pse>:
     d9a:	99 23       	and	r25, r25
     d9c:	b1 f3       	breq	.-20     	; 0xd8a <__divsf3+0x1e>
     d9e:	55 23       	and	r21, r21
     da0:	91 f3       	breq	.-28     	; 0xd86 <__divsf3+0x1a>
     da2:	95 1b       	sub	r25, r21
     da4:	55 0b       	sbc	r21, r21
     da6:	bb 27       	eor	r27, r27
     da8:	aa 27       	eor	r26, r26
     daa:	62 17       	cp	r22, r18
     dac:	73 07       	cpc	r23, r19
     dae:	84 07       	cpc	r24, r20
     db0:	38 f0       	brcs	.+14     	; 0xdc0 <__divsf3_pse+0x26>
     db2:	9f 5f       	subi	r25, 0xFF	; 255
     db4:	5f 4f       	sbci	r21, 0xFF	; 255
     db6:	22 0f       	add	r18, r18
     db8:	33 1f       	adc	r19, r19
     dba:	44 1f       	adc	r20, r20
     dbc:	aa 1f       	adc	r26, r26
     dbe:	a9 f3       	breq	.-22     	; 0xdaa <__divsf3_pse+0x10>
     dc0:	35 d0       	rcall	.+106    	; 0xe2c <__divsf3_pse+0x92>
     dc2:	0e 2e       	mov	r0, r30
     dc4:	3a f0       	brmi	.+14     	; 0xdd4 <__divsf3_pse+0x3a>
     dc6:	e0 e8       	ldi	r30, 0x80	; 128
     dc8:	32 d0       	rcall	.+100    	; 0xe2e <__divsf3_pse+0x94>
     dca:	91 50       	subi	r25, 0x01	; 1
     dcc:	50 40       	sbci	r21, 0x00	; 0
     dce:	e6 95       	lsr	r30
     dd0:	00 1c       	adc	r0, r0
     dd2:	ca f7       	brpl	.-14     	; 0xdc6 <__divsf3_pse+0x2c>
     dd4:	2b d0       	rcall	.+86     	; 0xe2c <__divsf3_pse+0x92>
     dd6:	fe 2f       	mov	r31, r30
     dd8:	29 d0       	rcall	.+82     	; 0xe2c <__divsf3_pse+0x92>
     dda:	66 0f       	add	r22, r22
     ddc:	77 1f       	adc	r23, r23
     dde:	88 1f       	adc	r24, r24
     de0:	bb 1f       	adc	r27, r27
     de2:	26 17       	cp	r18, r22
     de4:	37 07       	cpc	r19, r23
     de6:	48 07       	cpc	r20, r24
     de8:	ab 07       	cpc	r26, r27
     dea:	b0 e8       	ldi	r27, 0x80	; 128
     dec:	09 f0       	breq	.+2      	; 0xdf0 <__divsf3_pse+0x56>
     dee:	bb 0b       	sbc	r27, r27
     df0:	80 2d       	mov	r24, r0
     df2:	bf 01       	movw	r22, r30
     df4:	ff 27       	eor	r31, r31
     df6:	93 58       	subi	r25, 0x83	; 131
     df8:	5f 4f       	sbci	r21, 0xFF	; 255
     dfa:	3a f0       	brmi	.+14     	; 0xe0a <__divsf3_pse+0x70>
     dfc:	9e 3f       	cpi	r25, 0xFE	; 254
     dfe:	51 05       	cpc	r21, r1
     e00:	78 f0       	brcs	.+30     	; 0xe20 <__divsf3_pse+0x86>
     e02:	0c 94 94 07 	jmp	0xf28	; 0xf28 <__fp_inf>
     e06:	0c 94 df 07 	jmp	0xfbe	; 0xfbe <__fp_szero>
     e0a:	5f 3f       	cpi	r21, 0xFF	; 255
     e0c:	e4 f3       	brlt	.-8      	; 0xe06 <__divsf3_pse+0x6c>
     e0e:	98 3e       	cpi	r25, 0xE8	; 232
     e10:	d4 f3       	brlt	.-12     	; 0xe06 <__divsf3_pse+0x6c>
     e12:	86 95       	lsr	r24
     e14:	77 95       	ror	r23
     e16:	67 95       	ror	r22
     e18:	b7 95       	ror	r27
     e1a:	f7 95       	ror	r31
     e1c:	9f 5f       	subi	r25, 0xFF	; 255
     e1e:	c9 f7       	brne	.-14     	; 0xe12 <__divsf3_pse+0x78>
     e20:	88 0f       	add	r24, r24
     e22:	91 1d       	adc	r25, r1
     e24:	96 95       	lsr	r25
     e26:	87 95       	ror	r24
     e28:	97 f9       	bld	r25, 7
     e2a:	08 95       	ret
     e2c:	e1 e0       	ldi	r30, 0x01	; 1
     e2e:	66 0f       	add	r22, r22
     e30:	77 1f       	adc	r23, r23
     e32:	88 1f       	adc	r24, r24
     e34:	bb 1f       	adc	r27, r27
     e36:	62 17       	cp	r22, r18
     e38:	73 07       	cpc	r23, r19
     e3a:	84 07       	cpc	r24, r20
     e3c:	ba 07       	cpc	r27, r26
     e3e:	20 f0       	brcs	.+8      	; 0xe48 <__divsf3_pse+0xae>
     e40:	62 1b       	sub	r22, r18
     e42:	73 0b       	sbc	r23, r19
     e44:	84 0b       	sbc	r24, r20
     e46:	ba 0b       	sbc	r27, r26
     e48:	ee 1f       	adc	r30, r30
     e4a:	88 f7       	brcc	.-30     	; 0xe2e <__divsf3_pse+0x94>
     e4c:	e0 95       	com	r30
     e4e:	08 95       	ret

00000e50 <__fixunssfsi>:
     e50:	0e 94 c4 07 	call	0xf88	; 0xf88 <__fp_splitA>
     e54:	88 f0       	brcs	.+34     	; 0xe78 <__fixunssfsi+0x28>
     e56:	9f 57       	subi	r25, 0x7F	; 127
     e58:	98 f0       	brcs	.+38     	; 0xe80 <__fixunssfsi+0x30>
     e5a:	b9 2f       	mov	r27, r25
     e5c:	99 27       	eor	r25, r25
     e5e:	b7 51       	subi	r27, 0x17	; 23
     e60:	b0 f0       	brcs	.+44     	; 0xe8e <__fixunssfsi+0x3e>
     e62:	e1 f0       	breq	.+56     	; 0xe9c <__fixunssfsi+0x4c>
     e64:	66 0f       	add	r22, r22
     e66:	77 1f       	adc	r23, r23
     e68:	88 1f       	adc	r24, r24
     e6a:	99 1f       	adc	r25, r25
     e6c:	1a f0       	brmi	.+6      	; 0xe74 <__fixunssfsi+0x24>
     e6e:	ba 95       	dec	r27
     e70:	c9 f7       	brne	.-14     	; 0xe64 <__fixunssfsi+0x14>
     e72:	14 c0       	rjmp	.+40     	; 0xe9c <__fixunssfsi+0x4c>
     e74:	b1 30       	cpi	r27, 0x01	; 1
     e76:	91 f0       	breq	.+36     	; 0xe9c <__fixunssfsi+0x4c>
     e78:	0e 94 de 07 	call	0xfbc	; 0xfbc <__fp_zero>
     e7c:	b1 e0       	ldi	r27, 0x01	; 1
     e7e:	08 95       	ret
     e80:	0c 94 de 07 	jmp	0xfbc	; 0xfbc <__fp_zero>
     e84:	67 2f       	mov	r22, r23
     e86:	78 2f       	mov	r23, r24
     e88:	88 27       	eor	r24, r24
     e8a:	b8 5f       	subi	r27, 0xF8	; 248
     e8c:	39 f0       	breq	.+14     	; 0xe9c <__fixunssfsi+0x4c>
     e8e:	b9 3f       	cpi	r27, 0xF9	; 249
     e90:	cc f3       	brlt	.-14     	; 0xe84 <__fixunssfsi+0x34>
     e92:	86 95       	lsr	r24
     e94:	77 95       	ror	r23
     e96:	67 95       	ror	r22
     e98:	b3 95       	inc	r27
     e9a:	d9 f7       	brne	.-10     	; 0xe92 <__fixunssfsi+0x42>
     e9c:	3e f4       	brtc	.+14     	; 0xeac <__fixunssfsi+0x5c>
     e9e:	90 95       	com	r25
     ea0:	80 95       	com	r24
     ea2:	70 95       	com	r23
     ea4:	61 95       	neg	r22
     ea6:	7f 4f       	sbci	r23, 0xFF	; 255
     ea8:	8f 4f       	sbci	r24, 0xFF	; 255
     eaa:	9f 4f       	sbci	r25, 0xFF	; 255
     eac:	08 95       	ret

00000eae <__floatunsisf>:
     eae:	e8 94       	clt
     eb0:	09 c0       	rjmp	.+18     	; 0xec4 <__floatsisf+0x12>

00000eb2 <__floatsisf>:
     eb2:	97 fb       	bst	r25, 7
     eb4:	3e f4       	brtc	.+14     	; 0xec4 <__floatsisf+0x12>
     eb6:	90 95       	com	r25
     eb8:	80 95       	com	r24
     eba:	70 95       	com	r23
     ebc:	61 95       	neg	r22
     ebe:	7f 4f       	sbci	r23, 0xFF	; 255
     ec0:	8f 4f       	sbci	r24, 0xFF	; 255
     ec2:	9f 4f       	sbci	r25, 0xFF	; 255
     ec4:	99 23       	and	r25, r25
     ec6:	a9 f0       	breq	.+42     	; 0xef2 <__floatsisf+0x40>
     ec8:	f9 2f       	mov	r31, r25
     eca:	96 e9       	ldi	r25, 0x96	; 150
     ecc:	bb 27       	eor	r27, r27
     ece:	93 95       	inc	r25
     ed0:	f6 95       	lsr	r31
     ed2:	87 95       	ror	r24
     ed4:	77 95       	ror	r23
     ed6:	67 95       	ror	r22
     ed8:	b7 95       	ror	r27
     eda:	f1 11       	cpse	r31, r1
     edc:	f8 cf       	rjmp	.-16     	; 0xece <__floatsisf+0x1c>
     ede:	fa f4       	brpl	.+62     	; 0xf1e <__floatsisf+0x6c>
     ee0:	bb 0f       	add	r27, r27
     ee2:	11 f4       	brne	.+4      	; 0xee8 <__floatsisf+0x36>
     ee4:	60 ff       	sbrs	r22, 0
     ee6:	1b c0       	rjmp	.+54     	; 0xf1e <__floatsisf+0x6c>
     ee8:	6f 5f       	subi	r22, 0xFF	; 255
     eea:	7f 4f       	sbci	r23, 0xFF	; 255
     eec:	8f 4f       	sbci	r24, 0xFF	; 255
     eee:	9f 4f       	sbci	r25, 0xFF	; 255
     ef0:	16 c0       	rjmp	.+44     	; 0xf1e <__floatsisf+0x6c>
     ef2:	88 23       	and	r24, r24
     ef4:	11 f0       	breq	.+4      	; 0xefa <__floatsisf+0x48>
     ef6:	96 e9       	ldi	r25, 0x96	; 150
     ef8:	11 c0       	rjmp	.+34     	; 0xf1c <__floatsisf+0x6a>
     efa:	77 23       	and	r23, r23
     efc:	21 f0       	breq	.+8      	; 0xf06 <__floatsisf+0x54>
     efe:	9e e8       	ldi	r25, 0x8E	; 142
     f00:	87 2f       	mov	r24, r23
     f02:	76 2f       	mov	r23, r22
     f04:	05 c0       	rjmp	.+10     	; 0xf10 <__floatsisf+0x5e>
     f06:	66 23       	and	r22, r22
     f08:	71 f0       	breq	.+28     	; 0xf26 <__floatsisf+0x74>
     f0a:	96 e8       	ldi	r25, 0x86	; 134
     f0c:	86 2f       	mov	r24, r22
     f0e:	70 e0       	ldi	r23, 0x00	; 0
     f10:	60 e0       	ldi	r22, 0x00	; 0
     f12:	2a f0       	brmi	.+10     	; 0xf1e <__floatsisf+0x6c>
     f14:	9a 95       	dec	r25
     f16:	66 0f       	add	r22, r22
     f18:	77 1f       	adc	r23, r23
     f1a:	88 1f       	adc	r24, r24
     f1c:	da f7       	brpl	.-10     	; 0xf14 <__floatsisf+0x62>
     f1e:	88 0f       	add	r24, r24
     f20:	96 95       	lsr	r25
     f22:	87 95       	ror	r24
     f24:	97 f9       	bld	r25, 7
     f26:	08 95       	ret

00000f28 <__fp_inf>:
     f28:	97 f9       	bld	r25, 7
     f2a:	9f 67       	ori	r25, 0x7F	; 127
     f2c:	80 e8       	ldi	r24, 0x80	; 128
     f2e:	70 e0       	ldi	r23, 0x00	; 0
     f30:	60 e0       	ldi	r22, 0x00	; 0
     f32:	08 95       	ret

00000f34 <__fp_nan>:
     f34:	9f ef       	ldi	r25, 0xFF	; 255
     f36:	80 ec       	ldi	r24, 0xC0	; 192
     f38:	08 95       	ret

00000f3a <__fp_pscA>:
     f3a:	00 24       	eor	r0, r0
     f3c:	0a 94       	dec	r0
     f3e:	16 16       	cp	r1, r22
     f40:	17 06       	cpc	r1, r23
     f42:	18 06       	cpc	r1, r24
     f44:	09 06       	cpc	r0, r25
     f46:	08 95       	ret

00000f48 <__fp_pscB>:
     f48:	00 24       	eor	r0, r0
     f4a:	0a 94       	dec	r0
     f4c:	12 16       	cp	r1, r18
     f4e:	13 06       	cpc	r1, r19
     f50:	14 06       	cpc	r1, r20
     f52:	05 06       	cpc	r0, r21
     f54:	08 95       	ret

00000f56 <__fp_round>:
     f56:	09 2e       	mov	r0, r25
     f58:	03 94       	inc	r0
     f5a:	00 0c       	add	r0, r0
     f5c:	11 f4       	brne	.+4      	; 0xf62 <__fp_round+0xc>
     f5e:	88 23       	and	r24, r24
     f60:	52 f0       	brmi	.+20     	; 0xf76 <__fp_round+0x20>
     f62:	bb 0f       	add	r27, r27
     f64:	40 f4       	brcc	.+16     	; 0xf76 <__fp_round+0x20>
     f66:	bf 2b       	or	r27, r31
     f68:	11 f4       	brne	.+4      	; 0xf6e <__fp_round+0x18>
     f6a:	60 ff       	sbrs	r22, 0
     f6c:	04 c0       	rjmp	.+8      	; 0xf76 <__fp_round+0x20>
     f6e:	6f 5f       	subi	r22, 0xFF	; 255
     f70:	7f 4f       	sbci	r23, 0xFF	; 255
     f72:	8f 4f       	sbci	r24, 0xFF	; 255
     f74:	9f 4f       	sbci	r25, 0xFF	; 255
     f76:	08 95       	ret

00000f78 <__fp_split3>:
     f78:	57 fd       	sbrc	r21, 7
     f7a:	90 58       	subi	r25, 0x80	; 128
     f7c:	44 0f       	add	r20, r20
     f7e:	55 1f       	adc	r21, r21
     f80:	59 f0       	breq	.+22     	; 0xf98 <__fp_splitA+0x10>
     f82:	5f 3f       	cpi	r21, 0xFF	; 255
     f84:	71 f0       	breq	.+28     	; 0xfa2 <__fp_splitA+0x1a>
     f86:	47 95       	ror	r20

00000f88 <__fp_splitA>:
     f88:	88 0f       	add	r24, r24
     f8a:	97 fb       	bst	r25, 7
     f8c:	99 1f       	adc	r25, r25
     f8e:	61 f0       	breq	.+24     	; 0xfa8 <__fp_splitA+0x20>
     f90:	9f 3f       	cpi	r25, 0xFF	; 255
     f92:	79 f0       	breq	.+30     	; 0xfb2 <__fp_splitA+0x2a>
     f94:	87 95       	ror	r24
     f96:	08 95       	ret
     f98:	12 16       	cp	r1, r18
     f9a:	13 06       	cpc	r1, r19
     f9c:	14 06       	cpc	r1, r20
     f9e:	55 1f       	adc	r21, r21
     fa0:	f2 cf       	rjmp	.-28     	; 0xf86 <__fp_split3+0xe>
     fa2:	46 95       	lsr	r20
     fa4:	f1 df       	rcall	.-30     	; 0xf88 <__fp_splitA>
     fa6:	08 c0       	rjmp	.+16     	; 0xfb8 <__fp_splitA+0x30>
     fa8:	16 16       	cp	r1, r22
     faa:	17 06       	cpc	r1, r23
     fac:	18 06       	cpc	r1, r24
     fae:	99 1f       	adc	r25, r25
     fb0:	f1 cf       	rjmp	.-30     	; 0xf94 <__fp_splitA+0xc>
     fb2:	86 95       	lsr	r24
     fb4:	71 05       	cpc	r23, r1
     fb6:	61 05       	cpc	r22, r1
     fb8:	08 94       	sec
     fba:	08 95       	ret

00000fbc <__fp_zero>:
     fbc:	e8 94       	clt

00000fbe <__fp_szero>:
     fbe:	bb 27       	eor	r27, r27
     fc0:	66 27       	eor	r22, r22
     fc2:	77 27       	eor	r23, r23
     fc4:	cb 01       	movw	r24, r22
     fc6:	97 f9       	bld	r25, 7
     fc8:	08 95       	ret

00000fca <do_rand>:
     fca:	cf 92       	push	r12
     fcc:	df 92       	push	r13
     fce:	ef 92       	push	r14
     fd0:	ff 92       	push	r15
     fd2:	cf 93       	push	r28
     fd4:	df 93       	push	r29
     fd6:	cd b7       	in	r28, 0x3d	; 61
     fd8:	de b7       	in	r29, 0x3e	; 62
     fda:	2a 97       	sbiw	r28, 0x0a	; 10
     fdc:	0f b6       	in	r0, 0x3f	; 63
     fde:	f8 94       	cli
     fe0:	de bf       	out	0x3e, r29	; 62
     fe2:	0f be       	out	0x3f, r0	; 63
     fe4:	cd bf       	out	0x3d, r28	; 61
     fe6:	89 87       	std	Y+9, r24	; 0x09
     fe8:	9a 87       	std	Y+10, r25	; 0x0a
     fea:	a9 85       	ldd	r26, Y+9	; 0x09
     fec:	ba 85       	ldd	r27, Y+10	; 0x0a
     fee:	2d 91       	ld	r18, X+
     ff0:	3d 91       	ld	r19, X+
     ff2:	4d 91       	ld	r20, X+
     ff4:	5c 91       	ld	r21, X
     ff6:	29 83       	std	Y+1, r18	; 0x01
     ff8:	3a 83       	std	Y+2, r19	; 0x02
     ffa:	4b 83       	std	Y+3, r20	; 0x03
     ffc:	5c 83       	std	Y+4, r21	; 0x04
     ffe:	23 2b       	or	r18, r19
    1000:	24 2b       	or	r18, r20
    1002:	25 2b       	or	r18, r21
    1004:	41 f4       	brne	.+16     	; 0x1016 <do_rand+0x4c>
    1006:	24 e2       	ldi	r18, 0x24	; 36
    1008:	39 ed       	ldi	r19, 0xD9	; 217
    100a:	4b e5       	ldi	r20, 0x5B	; 91
    100c:	57 e0       	ldi	r21, 0x07	; 7
    100e:	29 83       	std	Y+1, r18	; 0x01
    1010:	3a 83       	std	Y+2, r19	; 0x02
    1012:	4b 83       	std	Y+3, r20	; 0x03
    1014:	5c 83       	std	Y+4, r21	; 0x04
    1016:	69 81       	ldd	r22, Y+1	; 0x01
    1018:	7a 81       	ldd	r23, Y+2	; 0x02
    101a:	8b 81       	ldd	r24, Y+3	; 0x03
    101c:	9c 81       	ldd	r25, Y+4	; 0x04
    101e:	2d e1       	ldi	r18, 0x1D	; 29
    1020:	33 ef       	ldi	r19, 0xF3	; 243
    1022:	41 e0       	ldi	r20, 0x01	; 1
    1024:	50 e0       	ldi	r21, 0x00	; 0
    1026:	0e 94 07 0b 	call	0x160e	; 0x160e <__divmodsi4>
    102a:	69 01       	movw	r12, r18
    102c:	7a 01       	movw	r14, r20
    102e:	a7 ea       	ldi	r26, 0xA7	; 167
    1030:	b1 e4       	ldi	r27, 0x41	; 65
    1032:	9b 01       	movw	r18, r22
    1034:	ac 01       	movw	r20, r24
    1036:	0e 94 26 0b 	call	0x164c	; 0x164c <__muluhisi3>
    103a:	69 83       	std	Y+1, r22	; 0x01
    103c:	7a 83       	std	Y+2, r23	; 0x02
    103e:	8b 83       	std	Y+3, r24	; 0x03
    1040:	9c 83       	std	Y+4, r25	; 0x04
    1042:	ac ee       	ldi	r26, 0xEC	; 236
    1044:	b4 ef       	ldi	r27, 0xF4	; 244
    1046:	a7 01       	movw	r20, r14
    1048:	96 01       	movw	r18, r12
    104a:	0e 94 34 0b 	call	0x1668	; 0x1668 <__mulohisi3>
    104e:	9b 01       	movw	r18, r22
    1050:	ac 01       	movw	r20, r24
    1052:	89 81       	ldd	r24, Y+1	; 0x01
    1054:	9a 81       	ldd	r25, Y+2	; 0x02
    1056:	ab 81       	ldd	r26, Y+3	; 0x03
    1058:	bc 81       	ldd	r27, Y+4	; 0x04
    105a:	82 0f       	add	r24, r18
    105c:	93 1f       	adc	r25, r19
    105e:	a4 1f       	adc	r26, r20
    1060:	b5 1f       	adc	r27, r21
    1062:	b7 ff       	sbrs	r27, 7
    1064:	03 c0       	rjmp	.+6      	; 0x106c <do_rand+0xa2>
    1066:	01 97       	sbiw	r24, 0x01	; 1
    1068:	a1 09       	sbc	r26, r1
    106a:	b0 48       	sbci	r27, 0x80	; 128
    106c:	e9 85       	ldd	r30, Y+9	; 0x09
    106e:	fa 85       	ldd	r31, Y+10	; 0x0a
    1070:	80 83       	st	Z, r24
    1072:	91 83       	std	Z+1, r25	; 0x01
    1074:	a2 83       	std	Z+2, r26	; 0x02
    1076:	b3 83       	std	Z+3, r27	; 0x03
    1078:	9f 77       	andi	r25, 0x7F	; 127
    107a:	2a 96       	adiw	r28, 0x0a	; 10
    107c:	0f b6       	in	r0, 0x3f	; 63
    107e:	f8 94       	cli
    1080:	de bf       	out	0x3e, r29	; 62
    1082:	0f be       	out	0x3f, r0	; 63
    1084:	cd bf       	out	0x3d, r28	; 61
    1086:	df 91       	pop	r29
    1088:	cf 91       	pop	r28
    108a:	ff 90       	pop	r15
    108c:	ef 90       	pop	r14
    108e:	df 90       	pop	r13
    1090:	cf 90       	pop	r12
    1092:	08 95       	ret

00001094 <rand_r>:
    1094:	0e 94 e5 07 	call	0xfca	; 0xfca <do_rand>
    1098:	08 95       	ret

0000109a <rand>:
    109a:	82 e0       	ldi	r24, 0x02	; 2
    109c:	91 e0       	ldi	r25, 0x01	; 1
    109e:	0e 94 e5 07 	call	0xfca	; 0xfca <do_rand>
    10a2:	08 95       	ret

000010a4 <srand>:
    10a4:	b0 e0       	ldi	r27, 0x00	; 0
    10a6:	a0 e0       	ldi	r26, 0x00	; 0
    10a8:	80 93 02 01 	sts	0x0102, r24	; 0x800102 <next>
    10ac:	90 93 03 01 	sts	0x0103, r25	; 0x800103 <next+0x1>
    10b0:	a0 93 04 01 	sts	0x0104, r26	; 0x800104 <next+0x2>
    10b4:	b0 93 05 01 	sts	0x0105, r27	; 0x800105 <next+0x3>
    10b8:	08 95       	ret

000010ba <memcpy_P>:
    10ba:	fb 01       	movw	r30, r22
    10bc:	dc 01       	movw	r26, r24
    10be:	02 c0       	rjmp	.+4      	; 0x10c4 <memcpy_P+0xa>
    10c0:	05 90       	lpm	r0, Z+
    10c2:	0d 92       	st	X+, r0
    10c4:	41 50       	subi	r20, 0x01	; 1
    10c6:	50 40       	sbci	r21, 0x00	; 0
    10c8:	d8 f7       	brcc	.-10     	; 0x10c0 <memcpy_P+0x6>
    10ca:	08 95       	ret

000010cc <memset>:
    10cc:	dc 01       	movw	r26, r24
    10ce:	01 c0       	rjmp	.+2      	; 0x10d2 <memset+0x6>
    10d0:	6d 93       	st	X+, r22
    10d2:	41 50       	subi	r20, 0x01	; 1
    10d4:	50 40       	sbci	r21, 0x00	; 0
    10d6:	e0 f7       	brcc	.-8      	; 0x10d0 <memset+0x4>
    10d8:	08 95       	ret

000010da <sprintf>:
    10da:	ae e0       	ldi	r26, 0x0E	; 14
    10dc:	b0 e0       	ldi	r27, 0x00	; 0
    10de:	e3 e7       	ldi	r30, 0x73	; 115
    10e0:	f8 e0       	ldi	r31, 0x08	; 8
    10e2:	0c 94 47 0b 	jmp	0x168e	; 0x168e <__prologue_saves__+0x1c>
    10e6:	0d 89       	ldd	r16, Y+21	; 0x15
    10e8:	1e 89       	ldd	r17, Y+22	; 0x16
    10ea:	86 e0       	ldi	r24, 0x06	; 6
    10ec:	8c 83       	std	Y+4, r24	; 0x04
    10ee:	1a 83       	std	Y+2, r17	; 0x02
    10f0:	09 83       	std	Y+1, r16	; 0x01
    10f2:	8f ef       	ldi	r24, 0xFF	; 255
    10f4:	9f e7       	ldi	r25, 0x7F	; 127
    10f6:	9e 83       	std	Y+6, r25	; 0x06
    10f8:	8d 83       	std	Y+5, r24	; 0x05
    10fa:	ae 01       	movw	r20, r28
    10fc:	47 5e       	subi	r20, 0xE7	; 231
    10fe:	5f 4f       	sbci	r21, 0xFF	; 255
    1100:	6f 89       	ldd	r22, Y+23	; 0x17
    1102:	78 8d       	ldd	r23, Y+24	; 0x18
    1104:	ce 01       	movw	r24, r28
    1106:	01 96       	adiw	r24, 0x01	; 1
    1108:	0e 94 90 08 	call	0x1120	; 0x1120 <vfprintf>
    110c:	2f 81       	ldd	r18, Y+7	; 0x07
    110e:	38 85       	ldd	r19, Y+8	; 0x08
    1110:	02 0f       	add	r16, r18
    1112:	13 1f       	adc	r17, r19
    1114:	f8 01       	movw	r30, r16
    1116:	10 82       	st	Z, r1
    1118:	2e 96       	adiw	r28, 0x0e	; 14
    111a:	e4 e0       	ldi	r30, 0x04	; 4
    111c:	0c 94 63 0b 	jmp	0x16c6	; 0x16c6 <__epilogue_restores__+0x1c>

00001120 <vfprintf>:
    1120:	af e0       	ldi	r26, 0x0F	; 15
    1122:	b0 e0       	ldi	r27, 0x00	; 0
    1124:	e6 e9       	ldi	r30, 0x96	; 150
    1126:	f8 e0       	ldi	r31, 0x08	; 8
    1128:	0c 94 39 0b 	jmp	0x1672	; 0x1672 <__prologue_saves__>
    112c:	7c 01       	movw	r14, r24
    112e:	3b 01       	movw	r6, r22
    1130:	8a 01       	movw	r16, r20
    1132:	dc 01       	movw	r26, r24
    1134:	17 96       	adiw	r26, 0x07	; 7
    1136:	1c 92       	st	X, r1
    1138:	1e 92       	st	-X, r1
    113a:	16 97       	sbiw	r26, 0x06	; 6
    113c:	13 96       	adiw	r26, 0x03	; 3
    113e:	8c 91       	ld	r24, X
    1140:	81 ff       	sbrs	r24, 1
    1142:	be c1       	rjmp	.+892    	; 0x14c0 <vfprintf+0x3a0>
    1144:	9a e0       	ldi	r25, 0x0A	; 10
    1146:	29 2e       	mov	r2, r25
    1148:	fe 01       	movw	r30, r28
    114a:	31 96       	adiw	r30, 0x01	; 1
    114c:	4f 01       	movw	r8, r30
    114e:	d7 01       	movw	r26, r14
    1150:	13 96       	adiw	r26, 0x03	; 3
    1152:	9c 91       	ld	r25, X
    1154:	f3 01       	movw	r30, r6
    1156:	93 fd       	sbrc	r25, 3
    1158:	85 91       	lpm	r24, Z+
    115a:	93 ff       	sbrs	r25, 3
    115c:	81 91       	ld	r24, Z+
    115e:	3f 01       	movw	r6, r30
    1160:	88 23       	and	r24, r24
    1162:	09 f4       	brne	.+2      	; 0x1166 <vfprintf+0x46>
    1164:	44 c1       	rjmp	.+648    	; 0x13ee <vfprintf+0x2ce>
    1166:	85 32       	cpi	r24, 0x25	; 37
    1168:	39 f4       	brne	.+14     	; 0x1178 <vfprintf+0x58>
    116a:	93 fd       	sbrc	r25, 3
    116c:	85 91       	lpm	r24, Z+
    116e:	93 ff       	sbrs	r25, 3
    1170:	81 91       	ld	r24, Z+
    1172:	3f 01       	movw	r6, r30
    1174:	85 32       	cpi	r24, 0x25	; 37
    1176:	29 f4       	brne	.+10     	; 0x1182 <vfprintf+0x62>
    1178:	b7 01       	movw	r22, r14
    117a:	90 e0       	ldi	r25, 0x00	; 0
    117c:	0e 94 79 0a 	call	0x14f2	; 0x14f2 <fputc>
    1180:	e6 cf       	rjmp	.-52     	; 0x114e <vfprintf+0x2e>
    1182:	b1 2c       	mov	r11, r1
    1184:	41 2c       	mov	r4, r1
    1186:	51 2c       	mov	r5, r1
    1188:	bf e1       	ldi	r27, 0x1F	; 31
    118a:	b5 15       	cp	r27, r5
    118c:	38 f0       	brcs	.+14     	; 0x119c <vfprintf+0x7c>
    118e:	8b 32       	cpi	r24, 0x2B	; 43
    1190:	09 f1       	breq	.+66     	; 0x11d4 <vfprintf+0xb4>
    1192:	88 f4       	brcc	.+34     	; 0x11b6 <vfprintf+0x96>
    1194:	80 32       	cpi	r24, 0x20	; 32
    1196:	01 f1       	breq	.+64     	; 0x11d8 <vfprintf+0xb8>
    1198:	83 32       	cpi	r24, 0x23	; 35
    119a:	21 f1       	breq	.+72     	; 0x11e4 <vfprintf+0xc4>
    119c:	57 fc       	sbrc	r5, 7
    119e:	3a c0       	rjmp	.+116    	; 0x1214 <vfprintf+0xf4>
    11a0:	20 ed       	ldi	r18, 0xD0	; 208
    11a2:	28 0f       	add	r18, r24
    11a4:	2a 30       	cpi	r18, 0x0A	; 10
    11a6:	40 f5       	brcc	.+80     	; 0x11f8 <vfprintf+0xd8>
    11a8:	56 fe       	sbrs	r5, 6
    11aa:	1f c0       	rjmp	.+62     	; 0x11ea <vfprintf+0xca>
    11ac:	b2 9c       	mul	r11, r2
    11ae:	20 0d       	add	r18, r0
    11b0:	11 24       	eor	r1, r1
    11b2:	b2 2e       	mov	r11, r18
    11b4:	06 c0       	rjmp	.+12     	; 0x11c2 <vfprintf+0xa2>
    11b6:	8d 32       	cpi	r24, 0x2D	; 45
    11b8:	91 f0       	breq	.+36     	; 0x11de <vfprintf+0xbe>
    11ba:	80 33       	cpi	r24, 0x30	; 48
    11bc:	79 f7       	brne	.-34     	; 0x119c <vfprintf+0x7c>
    11be:	68 94       	set
    11c0:	50 f8       	bld	r5, 0
    11c2:	f3 01       	movw	r30, r6
    11c4:	93 fd       	sbrc	r25, 3
    11c6:	85 91       	lpm	r24, Z+
    11c8:	93 ff       	sbrs	r25, 3
    11ca:	81 91       	ld	r24, Z+
    11cc:	3f 01       	movw	r6, r30
    11ce:	81 11       	cpse	r24, r1
    11d0:	db cf       	rjmp	.-74     	; 0x1188 <vfprintf+0x68>
    11d2:	20 c0       	rjmp	.+64     	; 0x1214 <vfprintf+0xf4>
    11d4:	68 94       	set
    11d6:	51 f8       	bld	r5, 1
    11d8:	68 94       	set
    11da:	52 f8       	bld	r5, 2
    11dc:	f2 cf       	rjmp	.-28     	; 0x11c2 <vfprintf+0xa2>
    11de:	68 94       	set
    11e0:	53 f8       	bld	r5, 3
    11e2:	ef cf       	rjmp	.-34     	; 0x11c2 <vfprintf+0xa2>
    11e4:	68 94       	set
    11e6:	54 f8       	bld	r5, 4
    11e8:	ec cf       	rjmp	.-40     	; 0x11c2 <vfprintf+0xa2>
    11ea:	42 9c       	mul	r4, r2
    11ec:	20 0d       	add	r18, r0
    11ee:	11 24       	eor	r1, r1
    11f0:	42 2e       	mov	r4, r18
    11f2:	68 94       	set
    11f4:	55 f8       	bld	r5, 5
    11f6:	e5 cf       	rjmp	.-54     	; 0x11c2 <vfprintf+0xa2>
    11f8:	8e 32       	cpi	r24, 0x2E	; 46
    11fa:	29 f4       	brne	.+10     	; 0x1206 <vfprintf+0xe6>
    11fc:	56 fc       	sbrc	r5, 6
    11fe:	f7 c0       	rjmp	.+494    	; 0x13ee <vfprintf+0x2ce>
    1200:	68 94       	set
    1202:	56 f8       	bld	r5, 6
    1204:	de cf       	rjmp	.-68     	; 0x11c2 <vfprintf+0xa2>
    1206:	8c 36       	cpi	r24, 0x6C	; 108
    1208:	19 f4       	brne	.+6      	; 0x1210 <vfprintf+0xf0>
    120a:	68 94       	set
    120c:	57 f8       	bld	r5, 7
    120e:	d9 cf       	rjmp	.-78     	; 0x11c2 <vfprintf+0xa2>
    1210:	88 36       	cpi	r24, 0x68	; 104
    1212:	b9 f2       	breq	.-82     	; 0x11c2 <vfprintf+0xa2>
    1214:	98 2f       	mov	r25, r24
    1216:	9f 7d       	andi	r25, 0xDF	; 223
    1218:	95 54       	subi	r25, 0x45	; 69
    121a:	93 30       	cpi	r25, 0x03	; 3
    121c:	c0 f0       	brcs	.+48     	; 0x124e <vfprintf+0x12e>
    121e:	83 36       	cpi	r24, 0x63	; 99
    1220:	81 f1       	breq	.+96     	; 0x1282 <vfprintf+0x162>
    1222:	83 37       	cpi	r24, 0x73	; 115
    1224:	a1 f1       	breq	.+104    	; 0x128e <vfprintf+0x16e>
    1226:	83 35       	cpi	r24, 0x53	; 83
    1228:	09 f0       	breq	.+2      	; 0x122c <vfprintf+0x10c>
    122a:	5b c0       	rjmp	.+182    	; 0x12e2 <vfprintf+0x1c2>
    122c:	d8 01       	movw	r26, r16
    122e:	cd 90       	ld	r12, X+
    1230:	dd 90       	ld	r13, X+
    1232:	8d 01       	movw	r16, r26
    1234:	6b 2d       	mov	r22, r11
    1236:	70 e0       	ldi	r23, 0x00	; 0
    1238:	56 fc       	sbrc	r5, 6
    123a:	02 c0       	rjmp	.+4      	; 0x1240 <vfprintf+0x120>
    123c:	6f ef       	ldi	r22, 0xFF	; 255
    123e:	7f ef       	ldi	r23, 0xFF	; 255
    1240:	c6 01       	movw	r24, r12
    1242:	0e 94 63 0a 	call	0x14c6	; 0x14c6 <strnlen_P>
    1246:	5c 01       	movw	r10, r24
    1248:	68 94       	set
    124a:	57 f8       	bld	r5, 7
    124c:	0a c0       	rjmp	.+20     	; 0x1262 <vfprintf+0x142>
    124e:	0c 5f       	subi	r16, 0xFC	; 252
    1250:	1f 4f       	sbci	r17, 0xFF	; 255
    1252:	ef e3       	ldi	r30, 0x3F	; 63
    1254:	e9 83       	std	Y+1, r30	; 0x01
    1256:	aa 24       	eor	r10, r10
    1258:	a3 94       	inc	r10
    125a:	b1 2c       	mov	r11, r1
    125c:	64 01       	movw	r12, r8
    125e:	e8 94       	clt
    1260:	57 f8       	bld	r5, 7
    1262:	53 fe       	sbrs	r5, 3
    1264:	29 c0       	rjmp	.+82     	; 0x12b8 <vfprintf+0x198>
    1266:	34 2c       	mov	r3, r4
    1268:	a1 14       	cp	r10, r1
    126a:	b1 04       	cpc	r11, r1
    126c:	51 f5       	brne	.+84     	; 0x12c2 <vfprintf+0x1a2>
    126e:	33 20       	and	r3, r3
    1270:	09 f4       	brne	.+2      	; 0x1274 <vfprintf+0x154>
    1272:	6d cf       	rjmp	.-294    	; 0x114e <vfprintf+0x2e>
    1274:	b7 01       	movw	r22, r14
    1276:	80 e2       	ldi	r24, 0x20	; 32
    1278:	90 e0       	ldi	r25, 0x00	; 0
    127a:	0e 94 79 0a 	call	0x14f2	; 0x14f2 <fputc>
    127e:	3a 94       	dec	r3
    1280:	f6 cf       	rjmp	.-20     	; 0x126e <vfprintf+0x14e>
    1282:	d8 01       	movw	r26, r16
    1284:	8c 91       	ld	r24, X
    1286:	89 83       	std	Y+1, r24	; 0x01
    1288:	0e 5f       	subi	r16, 0xFE	; 254
    128a:	1f 4f       	sbci	r17, 0xFF	; 255
    128c:	e4 cf       	rjmp	.-56     	; 0x1256 <vfprintf+0x136>
    128e:	f8 01       	movw	r30, r16
    1290:	c1 90       	ld	r12, Z+
    1292:	d1 90       	ld	r13, Z+
    1294:	8f 01       	movw	r16, r30
    1296:	6b 2d       	mov	r22, r11
    1298:	70 e0       	ldi	r23, 0x00	; 0
    129a:	56 fc       	sbrc	r5, 6
    129c:	02 c0       	rjmp	.+4      	; 0x12a2 <vfprintf+0x182>
    129e:	6f ef       	ldi	r22, 0xFF	; 255
    12a0:	7f ef       	ldi	r23, 0xFF	; 255
    12a2:	c6 01       	movw	r24, r12
    12a4:	0e 94 6e 0a 	call	0x14dc	; 0x14dc <strnlen>
    12a8:	5c 01       	movw	r10, r24
    12aa:	d9 cf       	rjmp	.-78     	; 0x125e <vfprintf+0x13e>
    12ac:	b7 01       	movw	r22, r14
    12ae:	80 e2       	ldi	r24, 0x20	; 32
    12b0:	90 e0       	ldi	r25, 0x00	; 0
    12b2:	0e 94 79 0a 	call	0x14f2	; 0x14f2 <fputc>
    12b6:	4a 94       	dec	r4
    12b8:	4a 14       	cp	r4, r10
    12ba:	1b 04       	cpc	r1, r11
    12bc:	09 f0       	breq	.+2      	; 0x12c0 <vfprintf+0x1a0>
    12be:	b0 f7       	brcc	.-20     	; 0x12ac <vfprintf+0x18c>
    12c0:	d2 cf       	rjmp	.-92     	; 0x1266 <vfprintf+0x146>
    12c2:	f6 01       	movw	r30, r12
    12c4:	57 fc       	sbrc	r5, 7
    12c6:	85 91       	lpm	r24, Z+
    12c8:	57 fe       	sbrs	r5, 7
    12ca:	81 91       	ld	r24, Z+
    12cc:	6f 01       	movw	r12, r30
    12ce:	b7 01       	movw	r22, r14
    12d0:	90 e0       	ldi	r25, 0x00	; 0
    12d2:	0e 94 79 0a 	call	0x14f2	; 0x14f2 <fputc>
    12d6:	31 10       	cpse	r3, r1
    12d8:	3a 94       	dec	r3
    12da:	b1 e0       	ldi	r27, 0x01	; 1
    12dc:	ab 1a       	sub	r10, r27
    12de:	b1 08       	sbc	r11, r1
    12e0:	c3 cf       	rjmp	.-122    	; 0x1268 <vfprintf+0x148>
    12e2:	84 36       	cpi	r24, 0x64	; 100
    12e4:	19 f0       	breq	.+6      	; 0x12ec <vfprintf+0x1cc>
    12e6:	89 36       	cpi	r24, 0x69	; 105
    12e8:	09 f0       	breq	.+2      	; 0x12ec <vfprintf+0x1cc>
    12ea:	71 c0       	rjmp	.+226    	; 0x13ce <vfprintf+0x2ae>
    12ec:	f8 01       	movw	r30, r16
    12ee:	57 fe       	sbrs	r5, 7
    12f0:	67 c0       	rjmp	.+206    	; 0x13c0 <vfprintf+0x2a0>
    12f2:	61 91       	ld	r22, Z+
    12f4:	71 91       	ld	r23, Z+
    12f6:	81 91       	ld	r24, Z+
    12f8:	91 91       	ld	r25, Z+
    12fa:	8f 01       	movw	r16, r30
    12fc:	e5 2d       	mov	r30, r5
    12fe:	ef 76       	andi	r30, 0x6F	; 111
    1300:	de 2e       	mov	r13, r30
    1302:	97 ff       	sbrs	r25, 7
    1304:	09 c0       	rjmp	.+18     	; 0x1318 <vfprintf+0x1f8>
    1306:	90 95       	com	r25
    1308:	80 95       	com	r24
    130a:	70 95       	com	r23
    130c:	61 95       	neg	r22
    130e:	7f 4f       	sbci	r23, 0xFF	; 255
    1310:	8f 4f       	sbci	r24, 0xFF	; 255
    1312:	9f 4f       	sbci	r25, 0xFF	; 255
    1314:	68 94       	set
    1316:	d7 f8       	bld	r13, 7
    1318:	2a e0       	ldi	r18, 0x0A	; 10
    131a:	30 e0       	ldi	r19, 0x00	; 0
    131c:	a4 01       	movw	r20, r8
    131e:	0e 94 a9 0a 	call	0x1552	; 0x1552 <__ultoa_invert>
    1322:	c8 2e       	mov	r12, r24
    1324:	c8 18       	sub	r12, r8
    1326:	ac 2c       	mov	r10, r12
    1328:	5d 2c       	mov	r5, r13
    132a:	d6 fe       	sbrs	r13, 6
    132c:	0c c0       	rjmp	.+24     	; 0x1346 <vfprintf+0x226>
    132e:	e8 94       	clt
    1330:	50 f8       	bld	r5, 0
    1332:	cb 14       	cp	r12, r11
    1334:	40 f4       	brcc	.+16     	; 0x1346 <vfprintf+0x226>
    1336:	d4 fe       	sbrs	r13, 4
    1338:	05 c0       	rjmp	.+10     	; 0x1344 <vfprintf+0x224>
    133a:	d2 fc       	sbrc	r13, 2
    133c:	03 c0       	rjmp	.+6      	; 0x1344 <vfprintf+0x224>
    133e:	5d 2d       	mov	r21, r13
    1340:	5e 7e       	andi	r21, 0xEE	; 238
    1342:	55 2e       	mov	r5, r21
    1344:	ab 2c       	mov	r10, r11
    1346:	54 fe       	sbrs	r5, 4
    1348:	93 c0       	rjmp	.+294    	; 0x1470 <vfprintf+0x350>
    134a:	fe 01       	movw	r30, r28
    134c:	ec 0d       	add	r30, r12
    134e:	f1 1d       	adc	r31, r1
    1350:	80 81       	ld	r24, Z
    1352:	80 33       	cpi	r24, 0x30	; 48
    1354:	09 f0       	breq	.+2      	; 0x1358 <vfprintf+0x238>
    1356:	85 c0       	rjmp	.+266    	; 0x1462 <vfprintf+0x342>
    1358:	65 2d       	mov	r22, r5
    135a:	69 7e       	andi	r22, 0xE9	; 233
    135c:	56 2e       	mov	r5, r22
    135e:	75 2d       	mov	r23, r5
    1360:	78 70       	andi	r23, 0x08	; 8
    1362:	37 2e       	mov	r3, r23
    1364:	53 fc       	sbrc	r5, 3
    1366:	93 c0       	rjmp	.+294    	; 0x148e <vfprintf+0x36e>
    1368:	50 fe       	sbrs	r5, 0
    136a:	8d c0       	rjmp	.+282    	; 0x1486 <vfprintf+0x366>
    136c:	bc 2c       	mov	r11, r12
    136e:	a4 14       	cp	r10, r4
    1370:	10 f4       	brcc	.+4      	; 0x1376 <vfprintf+0x256>
    1372:	b4 0c       	add	r11, r4
    1374:	ba 18       	sub	r11, r10
    1376:	54 fe       	sbrs	r5, 4
    1378:	90 c0       	rjmp	.+288    	; 0x149a <vfprintf+0x37a>
    137a:	b7 01       	movw	r22, r14
    137c:	80 e3       	ldi	r24, 0x30	; 48
    137e:	90 e0       	ldi	r25, 0x00	; 0
    1380:	0e 94 79 0a 	call	0x14f2	; 0x14f2 <fputc>
    1384:	52 fe       	sbrs	r5, 2
    1386:	07 c0       	rjmp	.+14     	; 0x1396 <vfprintf+0x276>
    1388:	88 e7       	ldi	r24, 0x78	; 120
    138a:	51 fc       	sbrc	r5, 1
    138c:	88 e5       	ldi	r24, 0x58	; 88
    138e:	90 e0       	ldi	r25, 0x00	; 0
    1390:	b7 01       	movw	r22, r14
    1392:	0e 94 79 0a 	call	0x14f2	; 0x14f2 <fputc>
    1396:	cb 14       	cp	r12, r11
    1398:	08 f4       	brcc	.+2      	; 0x139c <vfprintf+0x27c>
    139a:	8b c0       	rjmp	.+278    	; 0x14b2 <vfprintf+0x392>
    139c:	ca 94       	dec	r12
    139e:	d1 2c       	mov	r13, r1
    13a0:	8f ef       	ldi	r24, 0xFF	; 255
    13a2:	c8 1a       	sub	r12, r24
    13a4:	d8 0a       	sbc	r13, r24
    13a6:	c8 0c       	add	r12, r8
    13a8:	d9 1c       	adc	r13, r9
    13aa:	d6 01       	movw	r26, r12
    13ac:	8e 91       	ld	r24, -X
    13ae:	6d 01       	movw	r12, r26
    13b0:	b7 01       	movw	r22, r14
    13b2:	90 e0       	ldi	r25, 0x00	; 0
    13b4:	0e 94 79 0a 	call	0x14f2	; 0x14f2 <fputc>
    13b8:	8c 14       	cp	r8, r12
    13ba:	9d 04       	cpc	r9, r13
    13bc:	b1 f7       	brne	.-20     	; 0x13aa <vfprintf+0x28a>
    13be:	57 cf       	rjmp	.-338    	; 0x126e <vfprintf+0x14e>
    13c0:	61 91       	ld	r22, Z+
    13c2:	71 91       	ld	r23, Z+
    13c4:	07 2e       	mov	r0, r23
    13c6:	00 0c       	add	r0, r0
    13c8:	88 0b       	sbc	r24, r24
    13ca:	99 0b       	sbc	r25, r25
    13cc:	96 cf       	rjmp	.-212    	; 0x12fa <vfprintf+0x1da>
    13ce:	d5 2c       	mov	r13, r5
    13d0:	e8 94       	clt
    13d2:	d4 f8       	bld	r13, 4
    13d4:	2a e0       	ldi	r18, 0x0A	; 10
    13d6:	85 37       	cpi	r24, 0x75	; 117
    13d8:	29 f1       	breq	.+74     	; 0x1424 <vfprintf+0x304>
    13da:	f5 2d       	mov	r31, r5
    13dc:	f9 7f       	andi	r31, 0xF9	; 249
    13de:	df 2e       	mov	r13, r31
    13e0:	80 37       	cpi	r24, 0x70	; 112
    13e2:	a1 f0       	breq	.+40     	; 0x140c <vfprintf+0x2ec>
    13e4:	58 f4       	brcc	.+22     	; 0x13fc <vfprintf+0x2dc>
    13e6:	88 35       	cpi	r24, 0x58	; 88
    13e8:	a1 f0       	breq	.+40     	; 0x1412 <vfprintf+0x2f2>
    13ea:	8f 36       	cpi	r24, 0x6F	; 111
    13ec:	d1 f0       	breq	.+52     	; 0x1422 <vfprintf+0x302>
    13ee:	f7 01       	movw	r30, r14
    13f0:	86 81       	ldd	r24, Z+6	; 0x06
    13f2:	97 81       	ldd	r25, Z+7	; 0x07
    13f4:	2f 96       	adiw	r28, 0x0f	; 15
    13f6:	e2 e1       	ldi	r30, 0x12	; 18
    13f8:	0c 94 55 0b 	jmp	0x16aa	; 0x16aa <__epilogue_restores__>
    13fc:	88 37       	cpi	r24, 0x78	; 120
    13fe:	b9 f7       	brne	.-18     	; 0x13ee <vfprintf+0x2ce>
    1400:	d4 fe       	sbrs	r13, 4
    1402:	02 c0       	rjmp	.+4      	; 0x1408 <vfprintf+0x2e8>
    1404:	68 94       	set
    1406:	d2 f8       	bld	r13, 2
    1408:	20 e1       	ldi	r18, 0x10	; 16
    140a:	0c c0       	rjmp	.+24     	; 0x1424 <vfprintf+0x304>
    140c:	68 94       	set
    140e:	d4 f8       	bld	r13, 4
    1410:	f7 cf       	rjmp	.-18     	; 0x1400 <vfprintf+0x2e0>
    1412:	54 fe       	sbrs	r5, 4
    1414:	03 c0       	rjmp	.+6      	; 0x141c <vfprintf+0x2fc>
    1416:	2f 2f       	mov	r18, r31
    1418:	26 60       	ori	r18, 0x06	; 6
    141a:	d2 2e       	mov	r13, r18
    141c:	20 e1       	ldi	r18, 0x10	; 16
    141e:	32 e0       	ldi	r19, 0x02	; 2
    1420:	02 c0       	rjmp	.+4      	; 0x1426 <vfprintf+0x306>
    1422:	28 e0       	ldi	r18, 0x08	; 8
    1424:	30 e0       	ldi	r19, 0x00	; 0
    1426:	f8 01       	movw	r30, r16
    1428:	d7 fe       	sbrs	r13, 7
    142a:	15 c0       	rjmp	.+42     	; 0x1456 <vfprintf+0x336>
    142c:	41 91       	ld	r20, Z+
    142e:	51 91       	ld	r21, Z+
    1430:	61 91       	ld	r22, Z+
    1432:	71 91       	ld	r23, Z+
    1434:	4c 87       	std	Y+12, r20	; 0x0c
    1436:	5d 87       	std	Y+13, r21	; 0x0d
    1438:	6e 87       	std	Y+14, r22	; 0x0e
    143a:	7f 87       	std	Y+15, r23	; 0x0f
    143c:	8f 01       	movw	r16, r30
    143e:	a4 01       	movw	r20, r8
    1440:	6c 85       	ldd	r22, Y+12	; 0x0c
    1442:	7d 85       	ldd	r23, Y+13	; 0x0d
    1444:	8e 85       	ldd	r24, Y+14	; 0x0e
    1446:	9f 85       	ldd	r25, Y+15	; 0x0f
    1448:	0e 94 a9 0a 	call	0x1552	; 0x1552 <__ultoa_invert>
    144c:	c8 2e       	mov	r12, r24
    144e:	c8 18       	sub	r12, r8
    1450:	e8 94       	clt
    1452:	d7 f8       	bld	r13, 7
    1454:	68 cf       	rjmp	.-304    	; 0x1326 <vfprintf+0x206>
    1456:	81 91       	ld	r24, Z+
    1458:	91 91       	ld	r25, Z+
    145a:	ac 01       	movw	r20, r24
    145c:	70 e0       	ldi	r23, 0x00	; 0
    145e:	60 e0       	ldi	r22, 0x00	; 0
    1460:	e9 cf       	rjmp	.-46     	; 0x1434 <vfprintf+0x314>
    1462:	52 fc       	sbrc	r5, 2
    1464:	02 c0       	rjmp	.+4      	; 0x146a <vfprintf+0x34a>
    1466:	a3 94       	inc	r10
    1468:	7a cf       	rjmp	.-268    	; 0x135e <vfprintf+0x23e>
    146a:	a3 94       	inc	r10
    146c:	a3 94       	inc	r10
    146e:	77 cf       	rjmp	.-274    	; 0x135e <vfprintf+0x23e>
    1470:	85 2d       	mov	r24, r5
    1472:	86 78       	andi	r24, 0x86	; 134
    1474:	09 f4       	brne	.+2      	; 0x1478 <vfprintf+0x358>
    1476:	73 cf       	rjmp	.-282    	; 0x135e <vfprintf+0x23e>
    1478:	f6 cf       	rjmp	.-20     	; 0x1466 <vfprintf+0x346>
    147a:	b7 01       	movw	r22, r14
    147c:	80 e2       	ldi	r24, 0x20	; 32
    147e:	90 e0       	ldi	r25, 0x00	; 0
    1480:	0e 94 79 0a 	call	0x14f2	; 0x14f2 <fputc>
    1484:	a3 94       	inc	r10
    1486:	a4 14       	cp	r10, r4
    1488:	c0 f3       	brcs	.-16     	; 0x147a <vfprintf+0x35a>
    148a:	31 2c       	mov	r3, r1
    148c:	74 cf       	rjmp	.-280    	; 0x1376 <vfprintf+0x256>
    148e:	34 2c       	mov	r3, r4
    1490:	3a 18       	sub	r3, r10
    1492:	a4 14       	cp	r10, r4
    1494:	08 f4       	brcc	.+2      	; 0x1498 <vfprintf+0x378>
    1496:	6f cf       	rjmp	.-290    	; 0x1376 <vfprintf+0x256>
    1498:	f8 cf       	rjmp	.-16     	; 0x148a <vfprintf+0x36a>
    149a:	85 2d       	mov	r24, r5
    149c:	86 78       	andi	r24, 0x86	; 134
    149e:	09 f4       	brne	.+2      	; 0x14a2 <vfprintf+0x382>
    14a0:	7a cf       	rjmp	.-268    	; 0x1396 <vfprintf+0x276>
    14a2:	8b e2       	ldi	r24, 0x2B	; 43
    14a4:	51 fe       	sbrs	r5, 1
    14a6:	80 e2       	ldi	r24, 0x20	; 32
    14a8:	57 fc       	sbrc	r5, 7
    14aa:	8d e2       	ldi	r24, 0x2D	; 45
    14ac:	b7 01       	movw	r22, r14
    14ae:	90 e0       	ldi	r25, 0x00	; 0
    14b0:	70 cf       	rjmp	.-288    	; 0x1392 <vfprintf+0x272>
    14b2:	b7 01       	movw	r22, r14
    14b4:	80 e3       	ldi	r24, 0x30	; 48
    14b6:	90 e0       	ldi	r25, 0x00	; 0
    14b8:	0e 94 79 0a 	call	0x14f2	; 0x14f2 <fputc>
    14bc:	ba 94       	dec	r11
    14be:	6b cf       	rjmp	.-298    	; 0x1396 <vfprintf+0x276>
    14c0:	8f ef       	ldi	r24, 0xFF	; 255
    14c2:	9f ef       	ldi	r25, 0xFF	; 255
    14c4:	97 cf       	rjmp	.-210    	; 0x13f4 <vfprintf+0x2d4>

000014c6 <strnlen_P>:
    14c6:	fc 01       	movw	r30, r24
    14c8:	05 90       	lpm	r0, Z+
    14ca:	61 50       	subi	r22, 0x01	; 1
    14cc:	70 40       	sbci	r23, 0x00	; 0
    14ce:	01 10       	cpse	r0, r1
    14d0:	d8 f7       	brcc	.-10     	; 0x14c8 <strnlen_P+0x2>
    14d2:	80 95       	com	r24
    14d4:	90 95       	com	r25
    14d6:	8e 0f       	add	r24, r30
    14d8:	9f 1f       	adc	r25, r31
    14da:	08 95       	ret

000014dc <strnlen>:
    14dc:	fc 01       	movw	r30, r24
    14de:	61 50       	subi	r22, 0x01	; 1
    14e0:	70 40       	sbci	r23, 0x00	; 0
    14e2:	01 90       	ld	r0, Z+
    14e4:	01 10       	cpse	r0, r1
    14e6:	d8 f7       	brcc	.-10     	; 0x14de <strnlen+0x2>
    14e8:	80 95       	com	r24
    14ea:	90 95       	com	r25
    14ec:	8e 0f       	add	r24, r30
    14ee:	9f 1f       	adc	r25, r31
    14f0:	08 95       	ret

000014f2 <fputc>:
    14f2:	0f 93       	push	r16
    14f4:	1f 93       	push	r17
    14f6:	cf 93       	push	r28
    14f8:	df 93       	push	r29
    14fa:	18 2f       	mov	r17, r24
    14fc:	09 2f       	mov	r16, r25
    14fe:	eb 01       	movw	r28, r22
    1500:	8b 81       	ldd	r24, Y+3	; 0x03
    1502:	81 fd       	sbrc	r24, 1
    1504:	09 c0       	rjmp	.+18     	; 0x1518 <fputc+0x26>
    1506:	1f ef       	ldi	r17, 0xFF	; 255
    1508:	0f ef       	ldi	r16, 0xFF	; 255
    150a:	81 2f       	mov	r24, r17
    150c:	90 2f       	mov	r25, r16
    150e:	df 91       	pop	r29
    1510:	cf 91       	pop	r28
    1512:	1f 91       	pop	r17
    1514:	0f 91       	pop	r16
    1516:	08 95       	ret
    1518:	82 ff       	sbrs	r24, 2
    151a:	14 c0       	rjmp	.+40     	; 0x1544 <fputc+0x52>
    151c:	2e 81       	ldd	r18, Y+6	; 0x06
    151e:	3f 81       	ldd	r19, Y+7	; 0x07
    1520:	8c 81       	ldd	r24, Y+4	; 0x04
    1522:	9d 81       	ldd	r25, Y+5	; 0x05
    1524:	28 17       	cp	r18, r24
    1526:	39 07       	cpc	r19, r25
    1528:	3c f4       	brge	.+14     	; 0x1538 <fputc+0x46>
    152a:	e8 81       	ld	r30, Y
    152c:	f9 81       	ldd	r31, Y+1	; 0x01
    152e:	cf 01       	movw	r24, r30
    1530:	01 96       	adiw	r24, 0x01	; 1
    1532:	99 83       	std	Y+1, r25	; 0x01
    1534:	88 83       	st	Y, r24
    1536:	10 83       	st	Z, r17
    1538:	8e 81       	ldd	r24, Y+6	; 0x06
    153a:	9f 81       	ldd	r25, Y+7	; 0x07
    153c:	01 96       	adiw	r24, 0x01	; 1
    153e:	9f 83       	std	Y+7, r25	; 0x07
    1540:	8e 83       	std	Y+6, r24	; 0x06
    1542:	e3 cf       	rjmp	.-58     	; 0x150a <fputc+0x18>
    1544:	e8 85       	ldd	r30, Y+8	; 0x08
    1546:	f9 85       	ldd	r31, Y+9	; 0x09
    1548:	81 2f       	mov	r24, r17
    154a:	09 95       	icall
    154c:	89 2b       	or	r24, r25
    154e:	a1 f3       	breq	.-24     	; 0x1538 <fputc+0x46>
    1550:	da cf       	rjmp	.-76     	; 0x1506 <fputc+0x14>

00001552 <__ultoa_invert>:
    1552:	fa 01       	movw	r30, r20
    1554:	aa 27       	eor	r26, r26
    1556:	28 30       	cpi	r18, 0x08	; 8
    1558:	51 f1       	breq	.+84     	; 0x15ae <__ultoa_invert+0x5c>
    155a:	20 31       	cpi	r18, 0x10	; 16
    155c:	81 f1       	breq	.+96     	; 0x15be <__ultoa_invert+0x6c>
    155e:	e8 94       	clt
    1560:	6f 93       	push	r22
    1562:	6e 7f       	andi	r22, 0xFE	; 254
    1564:	6e 5f       	subi	r22, 0xFE	; 254
    1566:	7f 4f       	sbci	r23, 0xFF	; 255
    1568:	8f 4f       	sbci	r24, 0xFF	; 255
    156a:	9f 4f       	sbci	r25, 0xFF	; 255
    156c:	af 4f       	sbci	r26, 0xFF	; 255
    156e:	b1 e0       	ldi	r27, 0x01	; 1
    1570:	3e d0       	rcall	.+124    	; 0x15ee <__ultoa_invert+0x9c>
    1572:	b4 e0       	ldi	r27, 0x04	; 4
    1574:	3c d0       	rcall	.+120    	; 0x15ee <__ultoa_invert+0x9c>
    1576:	67 0f       	add	r22, r23
    1578:	78 1f       	adc	r23, r24
    157a:	89 1f       	adc	r24, r25
    157c:	9a 1f       	adc	r25, r26
    157e:	a1 1d       	adc	r26, r1
    1580:	68 0f       	add	r22, r24
    1582:	79 1f       	adc	r23, r25
    1584:	8a 1f       	adc	r24, r26
    1586:	91 1d       	adc	r25, r1
    1588:	a1 1d       	adc	r26, r1
    158a:	6a 0f       	add	r22, r26
    158c:	71 1d       	adc	r23, r1
    158e:	81 1d       	adc	r24, r1
    1590:	91 1d       	adc	r25, r1
    1592:	a1 1d       	adc	r26, r1
    1594:	20 d0       	rcall	.+64     	; 0x15d6 <__ultoa_invert+0x84>
    1596:	09 f4       	brne	.+2      	; 0x159a <__ultoa_invert+0x48>
    1598:	68 94       	set
    159a:	3f 91       	pop	r19
    159c:	2a e0       	ldi	r18, 0x0A	; 10
    159e:	26 9f       	mul	r18, r22
    15a0:	11 24       	eor	r1, r1
    15a2:	30 19       	sub	r19, r0
    15a4:	30 5d       	subi	r19, 0xD0	; 208
    15a6:	31 93       	st	Z+, r19
    15a8:	de f6       	brtc	.-74     	; 0x1560 <__ultoa_invert+0xe>
    15aa:	cf 01       	movw	r24, r30
    15ac:	08 95       	ret
    15ae:	46 2f       	mov	r20, r22
    15b0:	47 70       	andi	r20, 0x07	; 7
    15b2:	40 5d       	subi	r20, 0xD0	; 208
    15b4:	41 93       	st	Z+, r20
    15b6:	b3 e0       	ldi	r27, 0x03	; 3
    15b8:	0f d0       	rcall	.+30     	; 0x15d8 <__ultoa_invert+0x86>
    15ba:	c9 f7       	brne	.-14     	; 0x15ae <__ultoa_invert+0x5c>
    15bc:	f6 cf       	rjmp	.-20     	; 0x15aa <__ultoa_invert+0x58>
    15be:	46 2f       	mov	r20, r22
    15c0:	4f 70       	andi	r20, 0x0F	; 15
    15c2:	40 5d       	subi	r20, 0xD0	; 208
    15c4:	4a 33       	cpi	r20, 0x3A	; 58
    15c6:	18 f0       	brcs	.+6      	; 0x15ce <__ultoa_invert+0x7c>
    15c8:	49 5d       	subi	r20, 0xD9	; 217
    15ca:	31 fd       	sbrc	r19, 1
    15cc:	40 52       	subi	r20, 0x20	; 32
    15ce:	41 93       	st	Z+, r20
    15d0:	02 d0       	rcall	.+4      	; 0x15d6 <__ultoa_invert+0x84>
    15d2:	a9 f7       	brne	.-22     	; 0x15be <__ultoa_invert+0x6c>
    15d4:	ea cf       	rjmp	.-44     	; 0x15aa <__ultoa_invert+0x58>
    15d6:	b4 e0       	ldi	r27, 0x04	; 4
    15d8:	a6 95       	lsr	r26
    15da:	97 95       	ror	r25
    15dc:	87 95       	ror	r24
    15de:	77 95       	ror	r23
    15e0:	67 95       	ror	r22
    15e2:	ba 95       	dec	r27
    15e4:	c9 f7       	brne	.-14     	; 0x15d8 <__ultoa_invert+0x86>
    15e6:	00 97       	sbiw	r24, 0x00	; 0
    15e8:	61 05       	cpc	r22, r1
    15ea:	71 05       	cpc	r23, r1
    15ec:	08 95       	ret
    15ee:	9b 01       	movw	r18, r22
    15f0:	ac 01       	movw	r20, r24
    15f2:	0a 2e       	mov	r0, r26
    15f4:	06 94       	lsr	r0
    15f6:	57 95       	ror	r21
    15f8:	47 95       	ror	r20
    15fa:	37 95       	ror	r19
    15fc:	27 95       	ror	r18
    15fe:	ba 95       	dec	r27
    1600:	c9 f7       	brne	.-14     	; 0x15f4 <__ultoa_invert+0xa2>
    1602:	62 0f       	add	r22, r18
    1604:	73 1f       	adc	r23, r19
    1606:	84 1f       	adc	r24, r20
    1608:	95 1f       	adc	r25, r21
    160a:	a0 1d       	adc	r26, r0
    160c:	08 95       	ret

0000160e <__divmodsi4>:
    160e:	05 2e       	mov	r0, r21
    1610:	97 fb       	bst	r25, 7
    1612:	1e f4       	brtc	.+6      	; 0x161a <__divmodsi4+0xc>
    1614:	00 94       	com	r0
    1616:	0e 94 1e 0b 	call	0x163c	; 0x163c <__negsi2>
    161a:	57 fd       	sbrc	r21, 7
    161c:	07 d0       	rcall	.+14     	; 0x162c <__divmodsi4_neg2>
    161e:	0e 94 70 0b 	call	0x16e0	; 0x16e0 <__udivmodsi4>
    1622:	07 fc       	sbrc	r0, 7
    1624:	03 d0       	rcall	.+6      	; 0x162c <__divmodsi4_neg2>
    1626:	4e f4       	brtc	.+18     	; 0x163a <__divmodsi4_exit>
    1628:	0c 94 1e 0b 	jmp	0x163c	; 0x163c <__negsi2>

0000162c <__divmodsi4_neg2>:
    162c:	50 95       	com	r21
    162e:	40 95       	com	r20
    1630:	30 95       	com	r19
    1632:	21 95       	neg	r18
    1634:	3f 4f       	sbci	r19, 0xFF	; 255
    1636:	4f 4f       	sbci	r20, 0xFF	; 255
    1638:	5f 4f       	sbci	r21, 0xFF	; 255

0000163a <__divmodsi4_exit>:
    163a:	08 95       	ret

0000163c <__negsi2>:
    163c:	90 95       	com	r25
    163e:	80 95       	com	r24
    1640:	70 95       	com	r23
    1642:	61 95       	neg	r22
    1644:	7f 4f       	sbci	r23, 0xFF	; 255
    1646:	8f 4f       	sbci	r24, 0xFF	; 255
    1648:	9f 4f       	sbci	r25, 0xFF	; 255
    164a:	08 95       	ret

0000164c <__muluhisi3>:
    164c:	0e 94 92 0b 	call	0x1724	; 0x1724 <__umulhisi3>
    1650:	a5 9f       	mul	r26, r21
    1652:	90 0d       	add	r25, r0
    1654:	b4 9f       	mul	r27, r20
    1656:	90 0d       	add	r25, r0
    1658:	a4 9f       	mul	r26, r20
    165a:	80 0d       	add	r24, r0
    165c:	91 1d       	adc	r25, r1
    165e:	11 24       	eor	r1, r1
    1660:	08 95       	ret

00001662 <__mulshisi3>:
    1662:	b7 ff       	sbrs	r27, 7
    1664:	0c 94 26 0b 	jmp	0x164c	; 0x164c <__muluhisi3>

00001668 <__mulohisi3>:
    1668:	0e 94 26 0b 	call	0x164c	; 0x164c <__muluhisi3>
    166c:	82 1b       	sub	r24, r18
    166e:	93 0b       	sbc	r25, r19
    1670:	08 95       	ret

00001672 <__prologue_saves__>:
    1672:	2f 92       	push	r2
    1674:	3f 92       	push	r3
    1676:	4f 92       	push	r4
    1678:	5f 92       	push	r5
    167a:	6f 92       	push	r6
    167c:	7f 92       	push	r7
    167e:	8f 92       	push	r8
    1680:	9f 92       	push	r9
    1682:	af 92       	push	r10
    1684:	bf 92       	push	r11
    1686:	cf 92       	push	r12
    1688:	df 92       	push	r13
    168a:	ef 92       	push	r14
    168c:	ff 92       	push	r15
    168e:	0f 93       	push	r16
    1690:	1f 93       	push	r17
    1692:	cf 93       	push	r28
    1694:	df 93       	push	r29
    1696:	cd b7       	in	r28, 0x3d	; 61
    1698:	de b7       	in	r29, 0x3e	; 62
    169a:	ca 1b       	sub	r28, r26
    169c:	db 0b       	sbc	r29, r27
    169e:	0f b6       	in	r0, 0x3f	; 63
    16a0:	f8 94       	cli
    16a2:	de bf       	out	0x3e, r29	; 62
    16a4:	0f be       	out	0x3f, r0	; 63
    16a6:	cd bf       	out	0x3d, r28	; 61
    16a8:	09 94       	ijmp

000016aa <__epilogue_restores__>:
    16aa:	2a 88       	ldd	r2, Y+18	; 0x12
    16ac:	39 88       	ldd	r3, Y+17	; 0x11
    16ae:	48 88       	ldd	r4, Y+16	; 0x10
    16b0:	5f 84       	ldd	r5, Y+15	; 0x0f
    16b2:	6e 84       	ldd	r6, Y+14	; 0x0e
    16b4:	7d 84       	ldd	r7, Y+13	; 0x0d
    16b6:	8c 84       	ldd	r8, Y+12	; 0x0c
    16b8:	9b 84       	ldd	r9, Y+11	; 0x0b
    16ba:	aa 84       	ldd	r10, Y+10	; 0x0a
    16bc:	b9 84       	ldd	r11, Y+9	; 0x09
    16be:	c8 84       	ldd	r12, Y+8	; 0x08
    16c0:	df 80       	ldd	r13, Y+7	; 0x07
    16c2:	ee 80       	ldd	r14, Y+6	; 0x06
    16c4:	fd 80       	ldd	r15, Y+5	; 0x05
    16c6:	0c 81       	ldd	r16, Y+4	; 0x04
    16c8:	1b 81       	ldd	r17, Y+3	; 0x03
    16ca:	aa 81       	ldd	r26, Y+2	; 0x02
    16cc:	b9 81       	ldd	r27, Y+1	; 0x01
    16ce:	ce 0f       	add	r28, r30
    16d0:	d1 1d       	adc	r29, r1
    16d2:	0f b6       	in	r0, 0x3f	; 63
    16d4:	f8 94       	cli
    16d6:	de bf       	out	0x3e, r29	; 62
    16d8:	0f be       	out	0x3f, r0	; 63
    16da:	cd bf       	out	0x3d, r28	; 61
    16dc:	ed 01       	movw	r28, r26
    16de:	08 95       	ret

000016e0 <__udivmodsi4>:
    16e0:	a1 e2       	ldi	r26, 0x21	; 33
    16e2:	1a 2e       	mov	r1, r26
    16e4:	aa 1b       	sub	r26, r26
    16e6:	bb 1b       	sub	r27, r27
    16e8:	fd 01       	movw	r30, r26
    16ea:	0d c0       	rjmp	.+26     	; 0x1706 <__udivmodsi4_ep>

000016ec <__udivmodsi4_loop>:
    16ec:	aa 1f       	adc	r26, r26
    16ee:	bb 1f       	adc	r27, r27
    16f0:	ee 1f       	adc	r30, r30
    16f2:	ff 1f       	adc	r31, r31
    16f4:	a2 17       	cp	r26, r18
    16f6:	b3 07       	cpc	r27, r19
    16f8:	e4 07       	cpc	r30, r20
    16fa:	f5 07       	cpc	r31, r21
    16fc:	20 f0       	brcs	.+8      	; 0x1706 <__udivmodsi4_ep>
    16fe:	a2 1b       	sub	r26, r18
    1700:	b3 0b       	sbc	r27, r19
    1702:	e4 0b       	sbc	r30, r20
    1704:	f5 0b       	sbc	r31, r21

00001706 <__udivmodsi4_ep>:
    1706:	66 1f       	adc	r22, r22
    1708:	77 1f       	adc	r23, r23
    170a:	88 1f       	adc	r24, r24
    170c:	99 1f       	adc	r25, r25
    170e:	1a 94       	dec	r1
    1710:	69 f7       	brne	.-38     	; 0x16ec <__udivmodsi4_loop>
    1712:	60 95       	com	r22
    1714:	70 95       	com	r23
    1716:	80 95       	com	r24
    1718:	90 95       	com	r25
    171a:	9b 01       	movw	r18, r22
    171c:	ac 01       	movw	r20, r24
    171e:	bd 01       	movw	r22, r26
    1720:	cf 01       	movw	r24, r30
    1722:	08 95       	ret

00001724 <__umulhisi3>:
    1724:	a2 9f       	mul	r26, r18
    1726:	b0 01       	movw	r22, r0
    1728:	b3 9f       	mul	r27, r19
    172a:	c0 01       	movw	r24, r0
    172c:	a3 9f       	mul	r26, r19
    172e:	70 0d       	add	r23, r0
    1730:	81 1d       	adc	r24, r1
    1732:	11 24       	eor	r1, r1
    1734:	91 1d       	adc	r25, r1
    1736:	b2 9f       	mul	r27, r18
    1738:	70 0d       	add	r23, r0
    173a:	81 1d       	adc	r24, r1
    173c:	11 24       	eor	r1, r1
    173e:	91 1d       	adc	r25, r1
    1740:	08 95       	ret

00001742 <_exit>:
    1742:	f8 94       	cli

00001744 <__stop_program>:
    1744:	ff cf       	rjmp	.-2      	; 0x1744 <__stop_program>
